文件：Work.c       编译器版本 HGASM 0202 页次1


   1  0000              ; Generated by holtek-gcc v3.19, Wed Feb 26 21:03:01 2020
   2  0000              ; 
   3  0000              ; Configuration:
   4  0000              ;       with long instruction
   5  0000              ;       Single ROM, Multi-RAM
   6  0000              ;       bits_per_rom_unit:16
   7  0000              ;       with mp1
   8  0000              ;       with tbhp, address(0x9)
   9  0000              ;          Use tabrd-const
  10  0000              ;       
  11  0000              ; SFR address of long-instruction arch:
  12  0000              ;    mp0 = -1,1,0
  13  0000              ;    mp1 = 4,3,2
  14  0000              ;    mp2 = 14,13,12
  15  0000              ;    tbp = 9,7,8
  16  0000              ;    acc = 5
  17  0000              ;    pcl = 6
  18  0000              ;    status = 10
  19  0000              ;    bp = 11
  20  0000              ;    intc = 33
  21  0000              ;       
  22  0000              ;       
  23  0000              ; use 'tabrdc' instead of 'tabrd'
  24  0000              ;       
  25  0000              
  26  0000              #pragma translator "holtek-gcc 4.6.4" "3.19" "build 20130711"
  27  0000              ; Rebuild 718
  28  0000              
  29  0000              ir equ [2]
  30  0000              mp equ [3]
  31  0000              sbp equ [4]
  32  0000              acc equ [5]
  33  0000              bp equ [11]
  34  0000              tblp equ [7]
  35  0000              tbhp equ [9]
  36  0000              status equ [10]
  37  0000              c equ [10].0
  38  0000              ac equ [10].1
  39  0000              z equ [10].2
  40  0000              ov equ [10].3
  41  0000              cz equ [10].6
  42  0000              sc equ [10].7
  43  0000              intc equ [33]
  44  0000              
  45  0000              extern ra:byte
  46  0000              extern rb:byte
  47  0000              extern rc:byte
  48  0000              extern rd:byte
  49  0000              extern re:byte
  50  0000              extern rf:byte
  51  0000              extern rg:byte
  52  0000              extern rh:byte
  53  0000              extern _Crom2Prom:near
  54  0000              extern _Crom2PromNext:near
  55  0000              
  56  0000              RAMBANK 0 @BITDATASEC, @BITDATASEC1
  57  0000              @HCCINIT	.section 'data'
  58  0000              @HCCINIT0	.section 'data'
  59  0000              @BITDATASEC	 .section 'data'
文件：Work.ASM     编译器版本 HGASM 0202 页次2

  60  0000              @BITDATASEC1	 .section 'data'
  61  0000              
  62  0000              #pragma debug scope 1 1
  63  0000              	extern __DELAY3:near
  64  0000              	extern __DELAYX3:near
  65  0000              	extern __DELAYX6:near
  66  0000              	extern __DELAYY5:near
  67  0000              	extern __DELAYY3:near
  68  0000              	extern _builtin_holtek_delay_2:byte
  69  0000              ___dsopc equ [112]
  70  0000              public _fun_get_NTC
  71  0000              #pragma debug scope 2 1

 362  0000              #line 362 "F:\CZW_Word\项目\额温计\Code\SW_BH67F2752_DemoCode_Lib_20180919\SW_BH67F2752_DemoCode_Lib_20180919\USER\Work.c"
 362  0000              _fun_get_NTC .section 'code'
 362  0000              _fun_get_NTC proc
 363  0000              #line 363 "F:\CZW_Word\项目\额温计\Code\SW_BH67F2752_DemoCode_Lib_20180919\SW_BH67F2752_DemoCode_Lib_20180919\USER\Work.c"
 363  0000  0700     R  	mov a,_SDK_SYS[3]
 363  0001  0A00        	sub a,0
 363  0002  3D0A        	sz z
 363  0003  2800     R  	jmp _L3
 363  0004  0A01        	sub a,(1)-(0)
 363  0005  3D0A        	sz z
 363  0006  2800     R  	jmp _L4
 363  0007              #line 363 "F:\CZW_Word\项目\额温计\Code\SW_BH67F2752_DemoCode_Lib_20180919\SW_BH67F2752_DemoCode_Lib_20180919\USER\Work.c"
 363  0007  0700     R  	mov a,_SDK_SYS[3]
 363  0008  0A02        	sub a,2
 363  0009  3D0A        	sz z
 363  000A  2800     R  	jmp _L5
 363  000B  0A01        	sub a,(3)-(2)
 363  000C  3D0A        	sz z
 363  000D  2800     R  	jmp _L6
 363  000E  0700     R  	mov a,_SDK_SYS[3]
 363  000F  0A04        	sub a,4
 363  0010  390A        	snz z
 363  0011  2800     R  	jmp _L12
 363  0012  2800     R  	jmp _L17
 363  0013              _L3:
 367  0013              #line 367 "F:\CZW_Word\项目\额温计\Code\SW_BH67F2752_DemoCode_Lib_20180919\SW_BH67F2752_DemoCode_Lib_20180919\USER\Work.c"
 367  0013  2000     E  	call _fun_TEMP1_INIT
 367  0014  2800     R  	jmp _L15
 367  0015              _L4:
 373  0015              #line 373 "F:\CZW_Word\项目\额温计\Code\SW_BH67F2752_DemoCode_Lib_20180919\SW_BH67F2752_DemoCode_Lib_20180919\USER\Work.c"
 373  0015  3800     E  	snz _SDK_ADC[25].1
 373  0016  2800     R  	jmp _L12
 375  0017              #line 375 "F:\CZW_Word\项目\额温计\Code\SW_BH67F2752_DemoCode_Lib_20180919\SW_BH67F2752_DemoCode_Lib_20180919\USER\Work.c"
 375  0017  0700     E  	mov a,_SDK_ADC[21]
 375  0018  0080     R  	mov _SDK_CAL[0],a
 375  0019  0700     E  	mov a,_SDK_ADC[22]
 375  001A  0080     R  	mov _SDK_CAL[1],a
 376  001B              #line 376 "F:\CZW_Word\项目\额温计\Code\SW_BH67F2752_DemoCode_Lib_20180919\SW_BH67F2752_DemoCode_Lib_20180919\USER\Work.c"
 376  001B  2000     E  	call _fun_ADC_Disable
 378  001C              #line 378 "F:\CZW_Word\项目\额温计\Code\SW_BH67F2752_DemoCode_Lib_20180919\SW_BH67F2752_DemoCode_Lib_20180919\USER\Work.c"
 378  001C  2000     E  	call _fun_TEMP2_INIT
 378  001D  2800     R  	jmp _L15
 378  001E              _L5:
 385  001E              #line 385 "F:\CZW_Word\项目\额温计\Code\SW_BH67F2752_DemoCode_Lib_20180919\SW_BH67F2752_DemoCode_Lib_20180919\USER\Work.c"
 385  001E  3800     E  	snz _SDK_ADC[25].1
 385  001F  2800     R  	jmp _L12
 387  0020              #line 387 "F:\CZW_Word\项目\额温计\Code\SW_BH67F2752_DemoCode_Lib_20180919\SW_BH67F2752_DemoCode_Lib_20180919\USER\Work.c"
文件：Work.c       编译器版本 HGASM 0202 页次3

 387  0020  0700     E  	mov a,_SDK_ADC[21]
 387  0021  0080     R  	mov _SDK_CAL[2],a
 387  0022  0700     E  	mov a,_SDK_ADC[22]
 387  0023  0080     R  	mov _SDK_CAL[3],a
 390  0024              #line 390 "F:\CZW_Word\项目\额温计\Code\SW_BH67F2752_DemoCode_Lib_20180919\SW_BH67F2752_DemoCode_Lib_20180919\USER\Work.c"
 390  0024  2000     E  	call _fun_VTP_INIT
 391  0025              #line 391 "F:\CZW_Word\项目\额温计\Code\SW_BH67F2752_DemoCode_Lib_20180919\SW_BH67F2752_DemoCode_Lib_20180919\USER\Work.c"
 391  0025  33F0        	set [112].7
 391  0026  30F0        	set [112].1
 391  0027  3070        	set [112].0
 391  0028  35F0        	clr [112].3
 391  0029  3170        	set [112].2
 391  002A              _L15:
 393  002A              #line 393 "F:\CZW_Word\项目\额温计\Code\SW_BH67F2752_DemoCode_Lib_20180919\SW_BH67F2752_DemoCode_Lib_20180919\USER\Work.c"
 393  002A  1480     R  	inc _SDK_SYS[3]
 393  002B  2800     R  	jmp _L12
 393  002C              _L6:
 399  002C              #line 399 "F:\CZW_Word\项目\额温计\Code\SW_BH67F2752_DemoCode_Lib_20180919\SW_BH67F2752_DemoCode_Lib_20180919\USER\Work.c"
 399  002C  3800     E  	snz _SDK_ADC[25].1
 399  002D  2800     R  	jmp _L12
 401  002E              #line 401 "F:\CZW_Word\项目\额温计\Code\SW_BH67F2752_DemoCode_Lib_20180919\SW_BH67F2752_DemoCode_Lib_20180919\USER\Work.c"
 401  002E  0700     E  	mov a,_SDK_ADC[21]
 401  002F  0080     R  	mov _SDK_CAL[6],a
 401  0030  0700     E  	mov a,_SDK_ADC[22]
 401  0031  0080     R  	mov _SDK_CAL[7],a
 403  0032              #line 403 "F:\CZW_Word\项目\额温计\Code\SW_BH67F2752_DemoCode_Lib_20180919\SW_BH67F2752_DemoCode_Lib_20180919\USER\Work.c"
 403  0032  2000     E  	call _fun_BAT_INIT
 404  0033              #line 404 "F:\CZW_Word\项目\额温计\Code\SW_BH67F2752_DemoCode_Lib_20180919\SW_BH67F2752_DemoCode_Lib_20180919\USER\Work.c"
 404  0033  1480     R  	inc _SDK_SYS[3]
 404  0034  2800     R  	jmp _L14
 404  0035              _L17:
 412  0035              #line 412 "F:\CZW_Word\项目\额温计\Code\SW_BH67F2752_DemoCode_Lib_20180919\SW_BH67F2752_DemoCode_Lib_20180919\USER\Work.c"
 412  0035  3800     E  	snz _SDK_ADC[25].1
 412  0036  2800     R  	jmp _L12
 416  0037              #line 416 "F:\CZW_Word\项目\额温计\Code\SW_BH67F2752_DemoCode_Lib_20180919\SW_BH67F2752_DemoCode_Lib_20180919\USER\Work.c"
 416  0037  0700     E  	mov a,_SDK_ADC[21]
 416  0038  0080     R  	mov _SDK_CAL[20],a
 416  0039  0700     E  	mov a,_SDK_ADC[22]
 416  003A  0080     R  	mov _SDK_CAL[21],a
 417  003B              #line 417 "F:\CZW_Word\项目\额温计\Code\SW_BH67F2752_DemoCode_Lib_20180919\SW_BH67F2752_DemoCode_Lib_20180919\USER\Work.c"
 417  003B  2000     E  	call _fun_ADC_Disable
 419  003C              #line 419 "F:\CZW_Word\项目\额温计\Code\SW_BH67F2752_DemoCode_Lib_20180919\SW_BH67F2752_DemoCode_Lib_20180919\USER\Work.c"
 419  003C  1F00     R  	clr _SDK_SYS[3]
 419  003D              _L14:
 421  003D              #line 421 "F:\CZW_Word\项目\额温计\Code\SW_BH67F2752_DemoCode_Lib_20180919\SW_BH67F2752_DemoCode_Lib_20180919\USER\Work.c"
 421  003D  0F01        	mov a,1
 421  003E  0080     E  	mov ra,a
 421  003F  2800     R  	jmp _L2
 421  0040              _L12:
 427  0040              #line 427 "F:\CZW_Word\项目\额温计\Code\SW_BH67F2752_DemoCode_Lib_20180919\SW_BH67F2752_DemoCode_Lib_20180919\USER\Work.c"
 427  0040  1F00     E  	clr ra
 427  0041              _L2:
 428  0041              #line 428 "F:\CZW_Word\项目\额温计\Code\SW_BH67F2752_DemoCode_Lib_20180919\SW_BH67F2752_DemoCode_Lib_20180919\USER\Work.c"
 428  0041  0700     E  	mov a,ra
 428  0042  0003        	ret
 428  0043              _fun_get_NTC endp
 428  0043              #line 428 "F:\CZW_Word\项目\额温计\Code\SW_BH67F2752_DemoCode_Lib_20180919\SW_BH67F2752_DemoCode_Lib_20180919\USER\Work.c"
 428  0043              #pragma debug scope 1 1
 428  0043              public _fun_get_VTP
 428  0043              #pragma debug scope 3 1
文件：Work.c       编译器版本 HGASM 0202 页次4

 432  0043              #line 432 "F:\CZW_Word\项目\额温计\Code\SW_BH67F2752_DemoCode_Lib_20180919\SW_BH67F2752_DemoCode_Lib_20180919\USER\Work.c"
 432  0000              _fun_get_VTP .section 'code'
 432  0000              _fun_get_VTP proc
 433  0000              #line 433 "F:\CZW_Word\项目\额温计\Code\SW_BH67F2752_DemoCode_Lib_20180919\SW_BH67F2752_DemoCode_Lib_20180919\USER\Work.c"
 433  0000  1E00     R  	snz _SDK_SYS[3]
 433  0001  2800     R  	jmp _L20
 433  0002              #line 433 "F:\CZW_Word\项目\额温计\Code\SW_BH67F2752_DemoCode_Lib_20180919\SW_BH67F2752_DemoCode_Lib_20180919\USER\Work.c"
 433  0002  1700     R  	sdza _SDK_SYS[3]
 433  0003  2800     R  	jmp _L23
 433  0004  2800     R  	jmp _L25
 433  0005              _L20:
 437  0005              #line 437 "F:\CZW_Word\项目\额温计\Code\SW_BH67F2752_DemoCode_Lib_20180919\SW_BH67F2752_DemoCode_Lib_20180919\USER\Work.c"
 437  0005  2000     E  	call _fun_VTP_INIT
 438  0006              #line 438 "F:\CZW_Word\项目\额温计\Code\SW_BH67F2752_DemoCode_Lib_20180919\SW_BH67F2752_DemoCode_Lib_20180919\USER\Work.c"
 438  0006  33F0        	set [112].7
 438  0007  34F0        	clr [112].1
 438  0008  3470        	clr [112].0
 438  0009  35F0        	clr [112].3
 438  000A  3170        	set [112].2
 439  000B              #line 439 "F:\CZW_Word\项目\额温计\Code\SW_BH67F2752_DemoCode_Lib_20180919\SW_BH67F2752_DemoCode_Lib_20180919\USER\Work.c"
 439  000B  1480     R  	inc _SDK_SYS[3]
 439  000C  2800     R  	jmp _L23
 439  000D              _L25:
 443  000D              #line 443 "F:\CZW_Word\项目\额温计\Code\SW_BH67F2752_DemoCode_Lib_20180919\SW_BH67F2752_DemoCode_Lib_20180919\USER\Work.c"
 443  000D  3800     E  	snz _SDK_ADC[25].1
 443  000E  2800     R  	jmp _L23
 443  000F              #pragma debug scope 4 3
 443  000F              ;begin block, line: 443.-1
 443  000F              #pragma debug scope 5 4
 443  000F              ;begin block, line: 443.-1
 445  000F              #line 445 "F:\CZW_Word\项目\额温计\Code\SW_BH67F2752_DemoCode_Lib_20180919\SW_BH67F2752_DemoCode_Lib_20180919\USER\Work.c"
 445  000F  1F00     R  	clr _SDK_SYS[3]
 446  0010              #line 446 "F:\CZW_Word\项目\额温计\Code\SW_BH67F2752_DemoCode_Lib_20180919\SW_BH67F2752_DemoCode_Lib_20180919\USER\Work.c"
 446  0010  0700     E  	mov a,_SDK_ADC[21]
 446  0011  0200     R  	sub a,_SDK_CAL[6]
 446  0012  0080     E  	mov ra,a
 446  0013  0700     E  	mov a,_SDK_ADC[22]
 446  0014  1200     R  	sbc a,_SDK_CAL[7]
 446  0015  0080     E  	mov rb,a
 446  0016  0700     E  	mov a,ra
 446  0017  0080     R  	mov _SDK_CAL[4],a
 446  0018  0700     E  	mov a,rb
 446  0019  0080     R  	mov _SDK_CAL[5],a
 446  001A  0F01        	mov a,1
 446  001B  0080     E  	mov ra,a
 446  001C  2800     R  	jmp _L19
 446  001D              _L23:
 446  001D              #pragma debug scope 4 3
 446  001D              #pragma debug scope 3 1
 451  001D              #line 451 "F:\CZW_Word\项目\额温计\Code\SW_BH67F2752_DemoCode_Lib_20180919\SW_BH67F2752_DemoCode_Lib_20180919\USER\Work.c"
 451  001D  1F00     E  	clr ra
 451  001E              _L19:
 452  001E              #line 452 "F:\CZW_Word\项目\额温计\Code\SW_BH67F2752_DemoCode_Lib_20180919\SW_BH67F2752_DemoCode_Lib_20180919\USER\Work.c"
 452  001E  0700     E  	mov a,ra
 452  001F  0003        	ret
 452  0020              _fun_get_VTP endp
 452  0020              #line 452 "F:\CZW_Word\项目\额温计\Code\SW_BH67F2752_DemoCode_Lib_20180919\SW_BH67F2752_DemoCode_Lib_20180919\USER\Work.c"
 452  0020              #pragma debug scope 1 1
 452  0020              public _fun_get_VTP_CORR
 452  0020              #pragma debug scope 6 1
文件：Work.c       编译器版本 HGASM 0202 页次5

 457  0020              #line 457 "F:\CZW_Word\项目\额温计\Code\SW_BH67F2752_DemoCode_Lib_20180919\SW_BH67F2752_DemoCode_Lib_20180919\USER\Work.c"
 457  0000              _fun_get_VTP_CORR .section 'code'
 457  0000              _fun_get_VTP_CORR proc
 458  0000              #line 458 "F:\CZW_Word\项目\额温计\Code\SW_BH67F2752_DemoCode_Lib_20180919\SW_BH67F2752_DemoCode_Lib_20180919\USER\Work.c"
 458  0000  0700     R  	mov a,_SDK_SYS[3]
 458  0001  0A00        	sub a,0
 458  0002  3D0A        	sz z
 458  0003  2800     R  	jmp _L28
 458  0004  0A01        	sub a,(1)-(0)
 458  0005  3D0A        	sz z
 458  0006  2800     R  	jmp _L29
 458  0007              #line 458 "F:\CZW_Word\项目\额温计\Code\SW_BH67F2752_DemoCode_Lib_20180919\SW_BH67F2752_DemoCode_Lib_20180919\USER\Work.c"
 458  0007  0700     R  	mov a,_SDK_SYS[3]
 458  0008  0A02        	sub a,2
 458  0009  390A        	snz z
 458  000A  2800     R  	jmp _L32
 458  000B  2800     R  	jmp _L30
 458  000C              _L28:
 462  000C              #line 462 "F:\CZW_Word\项目\额温计\Code\SW_BH67F2752_DemoCode_Lib_20180919\SW_BH67F2752_DemoCode_Lib_20180919\USER\Work.c"
 462  000C  2000     E  	call _fun_VTP_INIT
 463  000D              #line 463 "F:\CZW_Word\项目\额温计\Code\SW_BH67F2752_DemoCode_Lib_20180919\SW_BH67F2752_DemoCode_Lib_20180919\USER\Work.c"
 463  000D  33F0        	set [112].7
 463  000E  30F0        	set [112].1
 463  000F  3070        	set [112].0
 463  0010  35F0        	clr [112].3
 463  0011  3170        	set [112].2
 463  0012  2800     R  	jmp _L37
 463  0013              _L29:
 468  0013              #line 468 "F:\CZW_Word\项目\额温计\Code\SW_BH67F2752_DemoCode_Lib_20180919\SW_BH67F2752_DemoCode_Lib_20180919\USER\Work.c"
 468  0013  3800     E  	snz _SDK_ADC[25].1
 468  0014  2800     R  	jmp _L30
 468  0015              #pragma debug scope 7 6
 468  0015              ;begin block, line: 468.-1
 468  0015              #pragma debug scope 8 7
 468  0015              ;begin block, line: 468.-1
 471  0015              #line 471 "F:\CZW_Word\项目\额温计\Code\SW_BH67F2752_DemoCode_Lib_20180919\SW_BH67F2752_DemoCode_Lib_20180919\USER\Work.c"
 471  0015  0700     E  	mov a,_SDK_ADC[21]
 471  0016  0080     R  	mov _SDK_CAL[6],a
 471  0017  0700     E  	mov a,_SDK_ADC[22]
 471  0018  0080     R  	mov _SDK_CAL[7],a
 473  0019              #line 473 "F:\CZW_Word\项目\额温计\Code\SW_BH67F2752_DemoCode_Lib_20180919\SW_BH67F2752_DemoCode_Lib_20180919\USER\Work.c"
 473  0019  33F0        	set [112].7
 473  001A  34F0        	clr [112].1
 473  001B  3470        	clr [112].0
 473  001C  35F0        	clr [112].3
 473  001D  3170        	set [112].2
 474  001E              #line 474 "F:\CZW_Word\项目\额温计\Code\SW_BH67F2752_DemoCode_Lib_20180919\SW_BH67F2752_DemoCode_Lib_20180919\USER\Work.c"
 474  001E  2000     E  	call _fun_VTP_INIT
 474  001F              _L37:
 475  001F              #line 475 "F:\CZW_Word\项目\额温计\Code\SW_BH67F2752_DemoCode_Lib_20180919\SW_BH67F2752_DemoCode_Lib_20180919\USER\Work.c"
 475  001F  1480     R  	inc _SDK_SYS[3]
 475  0020  2800     R  	jmp _L32
 475  0021              _L30:
 475  0021              #pragma debug scope 7 6
 475  0021              #pragma debug scope 6 1
 479  0021              #line 479 "F:\CZW_Word\项目\额温计\Code\SW_BH67F2752_DemoCode_Lib_20180919\SW_BH67F2752_DemoCode_Lib_20180919\USER\Work.c"
 479  0021  3800     E  	snz _SDK_ADC[25].1
 479  0022  2800     R  	jmp _L32
 481  0023              #line 481 "F:\CZW_Word\项目\额温计\Code\SW_BH67F2752_DemoCode_Lib_20180919\SW_BH67F2752_DemoCode_Lib_20180919\USER\Work.c"
 481  0023  1F00     R  	clr _SDK_SYS[3]
文件：Work.c       编译器版本 HGASM 0202 页次6

 482  0024              #line 482 "F:\CZW_Word\项目\额温计\Code\SW_BH67F2752_DemoCode_Lib_20180919\SW_BH67F2752_DemoCode_Lib_20180919\USER\Work.c"
 482  0024  0700     E  	mov a,_SDK_ADC[21]
 482  0025  0200     R  	sub a,_SDK_CAL[6]
 482  0026  0080     E  	mov ra,a
 482  0027  0700     E  	mov a,_SDK_ADC[22]
 482  0028  1200     R  	sbc a,_SDK_CAL[7]
 482  0029  0080     E  	mov rb,a
 482  002A  0700     E  	mov a,ra
 482  002B  0080     R  	mov _SDK_CAL[4],a
 482  002C  0700     E  	mov a,rb
 482  002D  0080     R  	mov _SDK_CAL[5],a
 483  002E              #line 483 "F:\CZW_Word\项目\额温计\Code\SW_BH67F2752_DemoCode_Lib_20180919\SW_BH67F2752_DemoCode_Lib_20180919\USER\Work.c"
 483  002E  0F01        	mov a,1
 483  002F  0080     E  	mov ra,a
 483  0030  2800     R  	jmp _L27
 483  0031              _L32:
 488  0031              #line 488 "F:\CZW_Word\项目\额温计\Code\SW_BH67F2752_DemoCode_Lib_20180919\SW_BH67F2752_DemoCode_Lib_20180919\USER\Work.c"
 488  0031  1F00     E  	clr ra
 488  0032              _L27:
 489  0032              #line 489 "F:\CZW_Word\项目\额温计\Code\SW_BH67F2752_DemoCode_Lib_20180919\SW_BH67F2752_DemoCode_Lib_20180919\USER\Work.c"
 489  0032  0700     E  	mov a,ra
 489  0033  0003        	ret
 489  0034              _fun_get_VTP_CORR endp
 489  0034              #line 489 "F:\CZW_Word\项目\额温计\Code\SW_BH67F2752_DemoCode_Lib_20180919\SW_BH67F2752_DemoCode_Lib_20180919\USER\Work.c"
 489  0034              #pragma debug scope 1 1
 489  0034              public _fun_CORR_MODE
 489  0034              #pragma debug scope 9 1
 244  0034              #line 244 "F:\CZW_Word\项目\额温计\Code\SW_BH67F2752_DemoCode_Lib_20180919\SW_BH67F2752_DemoCode_Lib_20180919\USER\Work.c"
 244  0000              _fun_CORR_MODE .section 'code'
 244  0000              _fun_CORR_MODE proc
 244  0000  00              local _fun_CORR_MODE_2 db 1 dup(?)	; 0,1
 245  0001              #line 245 "F:\CZW_Word\项目\额温计\Code\SW_BH67F2752_DemoCode_Lib_20180919\SW_BH67F2752_DemoCode_Lib_20180919\USER\Work.c"
 245  0000  0700     R  	mov a,_gu8v_CorrMode[0]
 245  0001  0080     R  	mov _fun_CORR_MODE_2[0],a
 245  0002  0700     R  	mov a,_fun_CORR_MODE_2[0]
 245  0003  0A00        	sub a,0
 245  0004  3D0A        	sz z
 245  0005  2800     R  	jmp _L40
 245  0006  0A01        	sub a,(1)-(0)
 245  0007  3D0A        	sz z
 245  0008  2800     R  	jmp _L41
 245  0009              #line 245 "F:\CZW_Word\项目\额温计\Code\SW_BH67F2752_DemoCode_Lib_20180919\SW_BH67F2752_DemoCode_Lib_20180919\USER\Work.c"
 245  0009  0700     R  	mov a,_fun_CORR_MODE_2[0]
 245  000A  0A02        	sub a,2
 245  000B  3D0A        	sz z
 245  000C  2800     R  	jmp _L42
 245  000D  0A01        	sub a,(3)-(2)
 245  000E  3D0A        	sz z
 245  000F  2800     R  	jmp _L41
 245  0010  0700     R  	mov a,_fun_CORR_MODE_2[0]
 245  0011  0A04        	sub a,4
 245  0012  3D0A        	sz z
 245  0013  2800     R  	jmp _L44
 245  0014  0A01        	sub a,(5)-(4)
 245  0015  3D0A        	sz z
 245  0016  2800     R  	jmp _L45
 245  0017  0700     R  	mov a,_fun_CORR_MODE_2[0]
 245  0018  0A06        	sub a,6
 245  0019  390A        	snz z
 245  001A  2800     R  	jmp _L38
文件：Work.c       编译器版本 HGASM 0202 页次7

 245  001B  2800     R  	jmp _L77
 245  001C              _L40:
 249  001C              #line 249 "F:\CZW_Word\项目\额温计\Code\SW_BH67F2752_DemoCode_Lib_20180919\SW_BH67F2752_DemoCode_Lib_20180919\USER\Work.c"
 249  001C  3C00     R  	sz _gbv_Corr_Lock
 249  001D  2800     R  	jmp _L47
 251  001E              #line 251 "F:\CZW_Word\项目\额温计\Code\SW_BH67F2752_DemoCode_Lib_20180919\SW_BH67F2752_DemoCode_Lib_20180919\USER\Work.c"
 251  001E  2000     R  	call _fun_get_NTC
 251  001F  0080     E  	mov ra,a
 251  0020  1E00     E  	snz ra
 251  0021  2800     R  	jmp _L38
 253  0022              #line 253 "F:\CZW_Word\项目\额温计\Code\SW_BH67F2752_DemoCode_Lib_20180919\SW_BH67F2752_DemoCode_Lib_20180919\USER\Work.c"
 253  0022  3000     R  	set _gbv_Corr_Lock
 254  0023              #line 254 "F:\CZW_Word\项目\额温计\Code\SW_BH67F2752_DemoCode_Lib_20180919\SW_BH67F2752_DemoCode_Lib_20180919\USER\Work.c"
 254  0023  0700     R  	mov a,_SDK_CAL[2]
 254  0024  0080     E  	mov _fun_Rntc_Calculate_2[2],a
 254  0025  0700     R  	mov a,_SDK_CAL[3]
 254  0026  0080     E  	mov _fun_Rntc_Calculate_2[3],a
 254  0027  0700     R  	mov a,_SDK_CAL[0]
 254  0028  0080     E  	mov _fun_Rntc_Calculate_2[0],a
 254  0029  0700     R  	mov a,_SDK_CAL[1]
 254  002A  0080     E  	mov _fun_Rntc_Calculate_2[1],a
 254  002B  2000     E  	call _fun_Rntc_Calculate
 254  002C  0700     E  	mov a,ra
 254  002D  0080     R  	mov _SDK_CAL[14],a
 254  002E  0700     E  	mov a,rb
 254  002F  0080     R  	mov _SDK_CAL[15],a
 255  0030              #line 255 "F:\CZW_Word\项目\额温计\Code\SW_BH67F2752_DemoCode_Lib_20180919\SW_BH67F2752_DemoCode_Lib_20180919\USER\Work.c"
 255  0030  0700     E  	mov a,ra
 255  0031  0080     E  	mov _fun_Tsen_Calculate_2[0],a
 255  0032  0700     E  	mov a,rb
 255  0033  0080     E  	mov _fun_Tsen_Calculate_2[1],a
 255  0034  2000     E  	call _fun_Tsen_Calculate
 255  0035  0700     E  	mov a,ra
 255  0036  0080     R  	mov _SDK_CAL[8],a
 255  0037  0700     E  	mov a,rb
 255  0038  0080     R  	mov _SDK_CAL[9],a
 255  0039  2800     R  	jmp _L38
 255  003A              _L47:
 260  003A              #line 260 "F:\CZW_Word\项目\额温计\Code\SW_BH67F2752_DemoCode_Lib_20180919\SW_BH67F2752_DemoCode_Lib_20180919\USER\Work.c"
 260  003A  3800     E  	snz _SDK_TM[3].5
 260  003B  2800     R  	jmp _L49
 262  003C              #line 262 "F:\CZW_Word\项目\额温计\Code\SW_BH67F2752_DemoCode_Lib_20180919\SW_BH67F2752_DemoCode_Lib_20180919\USER\Work.c"
 262  003C  0700     R  	mov a,_SDK_CAL[8]
 262  003D  0080     E  	mov _LCD_DISPLAY_NUM_2[0],a
 262  003E  0700     R  	mov a,_SDK_CAL[9]
 262  003F  0080     E  	mov _LCD_DISPLAY_NUM_2[1],a
 262  0040  0F01        	mov a,1
 262  0041  2000     E  	call _LCD_DISPLAY_NUM
 262  0042  2800     R  	jmp _L50
 262  0043              _L49:
 266  0043              #line 266 "F:\CZW_Word\项目\额温计\Code\SW_BH67F2752_DemoCode_Lib_20180919\SW_BH67F2752_DemoCode_Lib_20180919\USER\Work.c"
 266  0043  0F00        	mov a,0
 266  0044  2000     E  	call _fun_LCD_FULL
 266  0045              _L50:
 268  0045              #line 268 "F:\CZW_Word\项目\额温计\Code\SW_BH67F2752_DemoCode_Lib_20180919\SW_BH67F2752_DemoCode_Lib_20180919\USER\Work.c"
 268  0045  3800     E  	snz _SDK_KEY[8].0
 268  0046  2800     R  	jmp _L38
 270  0047              #line 270 "F:\CZW_Word\项目\额温计\Code\SW_BH67F2752_DemoCode_Lib_20180919\SW_BH67F2752_DemoCode_Lib_20180919\USER\Work.c"
 270  0047  3400     E  	clr _SDK_KEY[8].0
 271  0048              #line 271 "F:\CZW_Word\项目\额温计\Code\SW_BH67F2752_DemoCode_Lib_20180919\SW_BH67F2752_DemoCode_Lib_20180919\USER\Work.c"
文件：Work.c       编译器版本 HGASM 0202 页次8

 271  0048  3400     R  	clr _gbv_Corr_Lock
 272  0049              #line 272 "F:\CZW_Word\项目\额温计\Code\SW_BH67F2752_DemoCode_Lib_20180919\SW_BH67F2752_DemoCode_Lib_20180919\USER\Work.c"
 272  0049  1F00     R  	clr _gu8v_CorrCount[0]
 273  004A              #line 273 "F:\CZW_Word\项目\额温计\Code\SW_BH67F2752_DemoCode_Lib_20180919\SW_BH67F2752_DemoCode_Lib_20180919\USER\Work.c"
 273  004A  0F01        	mov a,1
 273  004B  2000     E  	call _fun_LCD_Display_Cor
 273  004C  2800     R  	jmp _L74
 273  004D              _L41:
 279  004D              #line 279 "F:\CZW_Word\项目\额温计\Code\SW_BH67F2752_DemoCode_Lib_20180919\SW_BH67F2752_DemoCode_Lib_20180919\USER\Work.c"
 279  004D  1480     R  	inc _gu8v_CorrCount[0]
 280  004E              #line 280 "F:\CZW_Word\项目\额温计\Code\SW_BH67F2752_DemoCode_Lib_20180919\SW_BH67F2752_DemoCode_Lib_20180919\USER\Work.c"
 280  004E  0F64        	mov a,100
 280  004F  0200     R  	sub a,_gu8v_CorrCount[0]
 280  0050  3C0A        	sz c
 280  0051  2800     R  	jmp _L38
 282  0052              #line 282 "F:\CZW_Word\项目\额温计\Code\SW_BH67F2752_DemoCode_Lib_20180919\SW_BH67F2752_DemoCode_Lib_20180919\USER\Work.c"
 282  0052  1F00     R  	clr _gu8v_CorrCount[0]
 282  0053              _L74:
 283  0053              #line 283 "F:\CZW_Word\项目\额温计\Code\SW_BH67F2752_DemoCode_Lib_20180919\SW_BH67F2752_DemoCode_Lib_20180919\USER\Work.c"
 283  0053  1480     R  	inc _gu8v_CorrMode[0]
 283  0054  2800     R  	jmp _L38
 283  0055              _L42:
 288  0055              #line 288 "F:\CZW_Word\项目\额温计\Code\SW_BH67F2752_DemoCode_Lib_20180919\SW_BH67F2752_DemoCode_Lib_20180919\USER\Work.c"
 288  0055  2000     R  	call _fun_get_VTP_CORR
 288  0056  0080     E  	mov ra,a
 288  0057  1E00     E  	snz ra
 288  0058  2800     R  	jmp _L52
 290  0059              #line 290 "F:\CZW_Word\项目\额温计\Code\SW_BH67F2752_DemoCode_Lib_20180919\SW_BH67F2752_DemoCode_Lib_20180919\USER\Work.c"
 290  0059  0700     R  	mov a,_SDK_CAL[4]
 290  005A  0080     E  	mov _LCD_DISPLAY_NUM_2[0],a
 290  005B  0700     R  	mov a,_SDK_CAL[5]
 290  005C  0080     E  	mov _LCD_DISPLAY_NUM_2[1],a
 290  005D  0F01        	mov a,1
 290  005E  2000     E  	call _LCD_DISPLAY_NUM
 290  005F              _L52:
 292  005F              #line 292 "F:\CZW_Word\项目\额温计\Code\SW_BH67F2752_DemoCode_Lib_20180919\SW_BH67F2752_DemoCode_Lib_20180919\USER\Work.c"
 292  005F  3800     E  	snz _SDK_KEY[8].0
 292  0060  2800     R  	jmp _L38
 294  0061              #line 294 "F:\CZW_Word\项目\额温计\Code\SW_BH67F2752_DemoCode_Lib_20180919\SW_BH67F2752_DemoCode_Lib_20180919\USER\Work.c"
 294  0061  3400     E  	clr _SDK_KEY[8].0
 295  0062              #line 295 "F:\CZW_Word\项目\额温计\Code\SW_BH67F2752_DemoCode_Lib_20180919\SW_BH67F2752_DemoCode_Lib_20180919\USER\Work.c"
 295  0062  1480     R  	inc _gu8v_CorrMode[0]
 296  0063              #line 296 "F:\CZW_Word\项目\额温计\Code\SW_BH67F2752_DemoCode_Lib_20180919\SW_BH67F2752_DemoCode_Lib_20180919\USER\Work.c"
 296  0063  0700     R  	mov a,_SDK_CAL[4]
 296  0064  0080     R  	mov _SDK_CAL[16],a
 296  0065  0700     R  	mov a,_SDK_CAL[5]
 296  0066  0080     R  	mov _SDK_CAL[17],a
 297  0067              #line 297 "F:\CZW_Word\项目\额温计\Code\SW_BH67F2752_DemoCode_Lib_20180919\SW_BH67F2752_DemoCode_Lib_20180919\USER\Work.c"
 297  0067  0F02        	mov a,2
 297  0068  2000     E  	call _fun_LCD_Display_Cor
 297  0069  2800     R  	jmp _L38
 297  006A              _L44:
 309  006A              #line 309 "F:\CZW_Word\项目\额温计\Code\SW_BH67F2752_DemoCode_Lib_20180919\SW_BH67F2752_DemoCode_Lib_20180919\USER\Work.c"
 309  006A  2000     R  	call _fun_get_VTP_CORR
 309  006B  0080     E  	mov ra,a
 309  006C  1E00     E  	snz ra
 309  006D  2800     R  	jmp _L53
 311  006E              #line 311 "F:\CZW_Word\项目\额温计\Code\SW_BH67F2752_DemoCode_Lib_20180919\SW_BH67F2752_DemoCode_Lib_20180919\USER\Work.c"
 311  006E  0700     R  	mov a,_SDK_CAL[4]
 311  006F  0080     E  	mov _LCD_DISPLAY_NUM_2[0],a
文件：Work.c       编译器版本 HGASM 0202 页次9

 311  0070  0700     R  	mov a,_SDK_CAL[5]
 311  0071  0080     E  	mov _LCD_DISPLAY_NUM_2[1],a
 311  0072  0F01        	mov a,1
 311  0073  2000     E  	call _LCD_DISPLAY_NUM
 311  0074              _L53:
 313  0074              #line 313 "F:\CZW_Word\项目\额温计\Code\SW_BH67F2752_DemoCode_Lib_20180919\SW_BH67F2752_DemoCode_Lib_20180919\USER\Work.c"
 313  0074  3800     E  	snz _SDK_KEY[8].0
 313  0075  2800     R  	jmp _L38
 315  0076              #line 315 "F:\CZW_Word\项目\额温计\Code\SW_BH67F2752_DemoCode_Lib_20180919\SW_BH67F2752_DemoCode_Lib_20180919\USER\Work.c"
 315  0076  3400     E  	clr _SDK_KEY[8].0
 316  0077              #line 316 "F:\CZW_Word\项目\额温计\Code\SW_BH67F2752_DemoCode_Lib_20180919\SW_BH67F2752_DemoCode_Lib_20180919\USER\Work.c"
 316  0077  1480     R  	inc _gu8v_CorrMode[0]
 317  0078              #line 317 "F:\CZW_Word\项目\额温计\Code\SW_BH67F2752_DemoCode_Lib_20180919\SW_BH67F2752_DemoCode_Lib_20180919\USER\Work.c"
 317  0078  0700     R  	mov a,_SDK_CAL[4]
 317  0079  0080     R  	mov _SDK_CAL[18],a
 317  007A  0700     R  	mov a,_SDK_CAL[5]
 317  007B  0080     R  	mov _SDK_CAL[19],a
 317  007C  2800     R  	jmp _L38
 317  007D              _L45:
 323  007D              #line 323 "F:\CZW_Word\项目\额温计\Code\SW_BH67F2752_DemoCode_Lib_20180919\SW_BH67F2752_DemoCode_Lib_20180919\USER\Work.c"
 323  007D  0700     R  	mov a,_SDK_CAL[14]
 323  007E  0080     E  	mov _fun_Corr_Calculate_2[4],a
 323  007F  0700     R  	mov a,_SDK_CAL[15]
 323  0080  0080     E  	mov _fun_Corr_Calculate_2[5],a
 323  0081  0700     R  	mov a,_SDK_CAL[18]
 323  0082  0080     E  	mov _fun_Corr_Calculate_2[2],a
 323  0083  0700     R  	mov a,_SDK_CAL[19]
 323  0084  0080     E  	mov _fun_Corr_Calculate_2[3],a
 323  0085  0700     R  	mov a,_SDK_CAL[16]
 323  0086  0080     E  	mov _fun_Corr_Calculate_2[0],a
 323  0087  0700     R  	mov a,_SDK_CAL[17]
 323  0088  0080     E  	mov _fun_Corr_Calculate_2[1],a
 323  0089  2000     E  	call _fun_Corr_Calculate
 326  008A              #line 326 "F:\CZW_Word\项目\额温计\Code\SW_BH67F2752_DemoCode_Lib_20180919\SW_BH67F2752_DemoCode_Lib_20180919\USER\Work.c"
 326  008A  0F80        	mov a,128
 326  008B  0200     E  	sub a,_gu16v_Correction_K2[0]
 326  008C  0F25        	mov a,37
 326  008D  1200     E  	sbc a,_gu16v_Correction_K2[1]
 326  008E  3C0A        	sz c
 326  008F  2800     R  	jmp _L54
 326  0090  0F9F        	mov a,159
 326  0091  0200     E  	sub a,_gu16v_Correction_K2[0]
 326  0092  0F28        	mov a,40
 326  0093  1200     E  	sbc a,_gu16v_Correction_K2[1]
 326  0094  380A        	snz c
 326  0095  2800     R  	jmp _L54
 328  0096              #line 328 "F:\CZW_Word\项目\额温计\Code\SW_BH67F2752_DemoCode_Lib_20180919\SW_BH67F2752_DemoCode_Lib_20180919\USER\Work.c"
 328  0096  0F55        	mov a,85
 328  0097  0080     E  	mov _fun_EEprom_Write_2[0],a
 328  0098  0F00        	mov a,0
 328  0099  2000     E  	call _fun_EEprom_Write
 329  009A              #line 329 "F:\CZW_Word\项目\额温计\Code\SW_BH67F2752_DemoCode_Lib_20180919\SW_BH67F2752_DemoCode_Lib_20180919\USER\Work.c"
 329  009A  0700     E  	mov a,_gu16v_Correction_K1[0]
 329  009B  0080     E  	mov _fun_EEprom_Write_2[0],a
 329  009C  0F01        	mov a,1
 329  009D  2000     E  	call _fun_EEprom_Write
 330  009E              #line 330 "F:\CZW_Word\项目\额温计\Code\SW_BH67F2752_DemoCode_Lib_20180919\SW_BH67F2752_DemoCode_Lib_20180919\USER\Work.c"
 330  009E  0700     E  	mov a,_gu16v_Correction_K1[1]
 330  009F  0080     E  	mov _fun_EEprom_Write_2[0],a
 330  00A0  0F02        	mov a,2
文件：Work.c       编译器版本 HGASM 0202 页次10

 330  00A1  2000     E  	call _fun_EEprom_Write
 331  00A2              #line 331 "F:\CZW_Word\项目\额温计\Code\SW_BH67F2752_DemoCode_Lib_20180919\SW_BH67F2752_DemoCode_Lib_20180919\USER\Work.c"
 331  00A2  0700     E  	mov a,_gu16v_Correction_K2[0]
 331  00A3  0080     E  	mov _fun_EEprom_Write_2[0],a
 331  00A4  0F03        	mov a,3
 331  00A5  2000     E  	call _fun_EEprom_Write
 332  00A6              #line 332 "F:\CZW_Word\项目\额温计\Code\SW_BH67F2752_DemoCode_Lib_20180919\SW_BH67F2752_DemoCode_Lib_20180919\USER\Work.c"
 332  00A6  0700     E  	mov a,_gu16v_Correction_K2[1]
 332  00A7  0080     E  	mov _fun_EEprom_Write_2[0],a
 332  00A8  0F04        	mov a,4
 332  00A9  2000     E  	call _fun_EEprom_Write
 333  00AA              #line 333 "F:\CZW_Word\项目\额温计\Code\SW_BH67F2752_DemoCode_Lib_20180919\SW_BH67F2752_DemoCode_Lib_20180919\USER\Work.c"
 333  00AA  2000     E  	call _fun_LCD_Display_Success
 333  00AB  2800     R  	jmp _L74
 333  00AC              _L54:
 337  00AC              #line 337 "F:\CZW_Word\项目\额温计\Code\SW_BH67F2752_DemoCode_Lib_20180919\SW_BH67F2752_DemoCode_Lib_20180919\USER\Work.c"
 337  00AC  2000     E  	call _fun_LCD_Display_Fail
 337  00AD  2800     R  	jmp _L74
 337  00AE              _L77:
 343  00AE              #line 343 "F:\CZW_Word\项目\额温计\Code\SW_BH67F2752_DemoCode_Lib_20180919\SW_BH67F2752_DemoCode_Lib_20180919\USER\Work.c"
 343  00AE  3800     E  	snz _SDK_KEY[8].0
 343  00AF  2800     R  	jmp _L38
 345  00B0              #line 345 "F:\CZW_Word\项目\额温计\Code\SW_BH67F2752_DemoCode_Lib_20180919\SW_BH67F2752_DemoCode_Lib_20180919\USER\Work.c"
 345  00B0  3400     E  	clr _SDK_KEY[8].0
 346  00B1              #line 346 "F:\CZW_Word\项目\额温计\Code\SW_BH67F2752_DemoCode_Lib_20180919\SW_BH67F2752_DemoCode_Lib_20180919\USER\Work.c"
 346  00B1  1F00     R  	clr _SDK_SYS[3]
 346  00B2  0F02        	mov a,2
 346  00B3  0080     R  	mov _SDK_SYS[2],a
 347  00B4              #line 347 "F:\CZW_Word\项目\额温计\Code\SW_BH67F2752_DemoCode_Lib_20180919\SW_BH67F2752_DemoCode_Lib_20180919\USER\Work.c"
 347  00B4  0F00        	mov a,0
 347  00B5  2000     E  	call _fun_LCD_FULL
 348  00B6              #line 348 "F:\CZW_Word\项目\额温计\Code\SW_BH67F2752_DemoCode_Lib_20180919\SW_BH67F2752_DemoCode_Lib_20180919\USER\Work.c"
 348  00B6  3000     E  	set _SDK_TM[3].4
 349  00B7              #line 349 "F:\CZW_Word\项目\额温计\Code\SW_BH67F2752_DemoCode_Lib_20180919\SW_BH67F2752_DemoCode_Lib_20180919\USER\Work.c"
 349  00B7  3400     R  	clr _SDK_SYS[5].0
 350  00B8              #line 350 "F:\CZW_Word\项目\额温计\Code\SW_BH67F2752_DemoCode_Lib_20180919\SW_BH67F2752_DemoCode_Lib_20180919\USER\Work.c"
 350  00B8  1F00     R  	clr _gu8v_CorrMode[0]
 350  00B9              _L38:
 350  00B9  0003        	ret
 350  00BA              _fun_CORR_MODE endp
 350  00BA              #line 350 "F:\CZW_Word\项目\额温计\Code\SW_BH67F2752_DemoCode_Lib_20180919\SW_BH67F2752_DemoCode_Lib_20180919\USER\Work.c"
 350  00BA              #pragma debug scope 1 1
 350  00BA              public _fun_WorkModeScan
 350  00BA              #pragma debug scope 10 1
  32  00BA              #line 32 "F:\CZW_Word\项目\额温计\Code\SW_BH67F2752_DemoCode_Lib_20180919\SW_BH67F2752_DemoCode_Lib_20180919\USER\Work.c"
  32  0000              _fun_WorkModeScan .section 'code'
  32  0000              _fun_WorkModeScan proc
  32  0000  00              local _fun_WorkModeScan_2 db 1 dup(?)	; 0,1
  33  0001              #line 33 "F:\CZW_Word\项目\额温计\Code\SW_BH67F2752_DemoCode_Lib_20180919\SW_BH67F2752_DemoCode_Lib_20180919\USER\Work.c"
  33  0000  0700     R  	mov a,_SDK_SYS[2]
  33  0001  0A00        	sub a,0
  33  0002  3D0A        	sz z
  33  0003  2800     R  	jmp _L78
  33  0004  0A01        	sub a,(1)-(0)
  33  0005  3D0A        	sz z
  33  0006  2800     R  	jmp _L135
  33  0007              #line 33 "F:\CZW_Word\项目\额温计\Code\SW_BH67F2752_DemoCode_Lib_20180919\SW_BH67F2752_DemoCode_Lib_20180919\USER\Work.c"
  33  0007  0700     R  	mov a,_SDK_SYS[2]
  33  0008  0A02        	sub a,2
  33  0009  3D0A        	sz z
文件：Work.c       编译器版本 HGASM 0202 页次11

  33  000A  2800     R  	jmp _L82
  33  000B  0A01        	sub a,(3)-(2)
  33  000C  3D0A        	sz z
  33  000D  2800     R  	jmp _L83
  33  000E  0700     R  	mov a,_SDK_SYS[2]
  33  000F  0A04        	sub a,4
  33  0010  3D0A        	sz z
  33  0011  2800     R  	jmp _L84
  33  0012  0A04        	sub a,(8)-(4)
  33  0013  3D0A        	sz z
  33  0014  2800     R  	jmp _L85
  33  0015  0700     R  	mov a,_SDK_SYS[2]
  33  0016  0A09        	sub a,9
  33  0017  390A        	snz z
  33  0018  2800     R  	jmp _L135
  33  0019  2800     R  	jmp _L86
  33  001A              _L82:
  47  001A              #line 47 "F:\CZW_Word\项目\额温计\Code\SW_BH67F2752_DemoCode_Lib_20180919\SW_BH67F2752_DemoCode_Lib_20180919\USER\Work.c"
  47  001A  2000     R  	call _fun_get_NTC
  47  001B  0080     E  	mov ra,a
  47  001C  1E00     E  	snz ra
  47  001D  2800     R  	jmp _L87
  49  001E              #line 49 "F:\CZW_Word\项目\额温计\Code\SW_BH67F2752_DemoCode_Lib_20180919\SW_BH67F2752_DemoCode_Lib_20180919\USER\Work.c"
  49  001E  0700     R  	mov a,_SDK_CAL[2]
  49  001F  0080     E  	mov _fun_Rntc_Calculate_2[2],a
  49  0020  0700     R  	mov a,_SDK_CAL[3]
  49  0021  0080     E  	mov _fun_Rntc_Calculate_2[3],a
  49  0022  0700     R  	mov a,_SDK_CAL[0]
  49  0023  0080     E  	mov _fun_Rntc_Calculate_2[0],a
  49  0024  0700     R  	mov a,_SDK_CAL[1]
  49  0025  0080     E  	mov _fun_Rntc_Calculate_2[1],a
  49  0026  2000     E  	call _fun_Rntc_Calculate
  49  0027  0700     E  	mov a,ra
  49  0028  0080     R  	mov _SDK_CAL[14],a
  49  0029  0700     E  	mov a,rb
  49  002A  0080     R  	mov _SDK_CAL[15],a
  50  002B              #line 50 "F:\CZW_Word\项目\额温计\Code\SW_BH67F2752_DemoCode_Lib_20180919\SW_BH67F2752_DemoCode_Lib_20180919\USER\Work.c"
  50  002B  3000     R  	set _SDK_SYS[5].0
  50  002C              _L87:
  53  002C              #line 53 "F:\CZW_Word\项目\额温计\Code\SW_BH67F2752_DemoCode_Lib_20180919\SW_BH67F2752_DemoCode_Lib_20180919\USER\Work.c"
  53  002C  3800     R  	snz _SDK_SYS[5].0
  53  002D  2800     R  	jmp _L78
  55  002E              #line 55 "F:\CZW_Word\项目\额温计\Code\SW_BH67F2752_DemoCode_Lib_20180919\SW_BH67F2752_DemoCode_Lib_20180919\USER\Work.c"
  55  002E  3400     R  	clr _SDK_SYS[5].0
  60  002F              #line 60 "F:\CZW_Word\项目\额温计\Code\SW_BH67F2752_DemoCode_Lib_20180919\SW_BH67F2752_DemoCode_Lib_20180919\USER\Work.c"
  60  002F  3800     E  	snz _SDK_KEY[8].0
  60  0030  2800     R  	jmp _L90
  62  0031              #line 62 "F:\CZW_Word\项目\额温计\Code\SW_BH67F2752_DemoCode_Lib_20180919\SW_BH67F2752_DemoCode_Lib_20180919\USER\Work.c"
  62  0031  3400     E  	clr _SDK_KEY[8].0
  64  0032              #line 64 "F:\CZW_Word\项目\额温计\Code\SW_BH67F2752_DemoCode_Lib_20180919\SW_BH67F2752_DemoCode_Lib_20180919\USER\Work.c"
  64  0032  0700     R  	mov a,_SDK_SYS[1]
  64  0033  0080     R  	mov _fun_WorkModeScan_2[0],a
  64  0034  1700     R  	sdza _fun_WorkModeScan_2[0]
  64  0035  2800     R  	jmp _L91
  66  0036              #line 66 "F:\CZW_Word\项目\额温计\Code\SW_BH67F2752_DemoCode_Lib_20180919\SW_BH67F2752_DemoCode_Lib_20180919\USER\Work.c"
  66  0036  1F00     R  	clr _SDK_SYS[3]
  66  0037  0F03        	mov a,3
  66  0038  0080     R  	mov _SDK_SYS[2],a
  66  0039  2800     R  	jmp _L90
  66  003A              _L91:
文件：Work.c       编译器版本 HGASM 0202 页次12

  68  003A              #line 68 "F:\CZW_Word\项目\额温计\Code\SW_BH67F2752_DemoCode_Lib_20180919\SW_BH67F2752_DemoCode_Lib_20180919\USER\Work.c"
  68  003A  0700     R  	mov a,_fun_WorkModeScan_2[0]
  68  003B  0A02        	sub a,2
  68  003C  390A        	snz z
  68  003D  2800     R  	jmp _L92
  70  003E              #line 70 "F:\CZW_Word\项目\额温计\Code\SW_BH67F2752_DemoCode_Lib_20180919\SW_BH67F2752_DemoCode_Lib_20180919\USER\Work.c"
  70  003E  1F00     R  	clr _SDK_SYS[3]
  70  003F  0F08        	mov a,8
  70  0040  0080     R  	mov _SDK_SYS[2],a
  70  0041  2800     R  	jmp _L90
  70  0042              _L92:
  72  0042              #line 72 "F:\CZW_Word\项目\额温计\Code\SW_BH67F2752_DemoCode_Lib_20180919\SW_BH67F2752_DemoCode_Lib_20180919\USER\Work.c"
  72  0042  0700     R  	mov a,_fun_WorkModeScan_2[0]
  72  0043  0A03        	sub a,3
  72  0044  390A        	snz z
  72  0045  2800     R  	jmp _L90
  74  0046              #line 74 "F:\CZW_Word\项目\额温计\Code\SW_BH67F2752_DemoCode_Lib_20180919\SW_BH67F2752_DemoCode_Lib_20180919\USER\Work.c"
  74  0046  1F00     R  	clr _SDK_SYS[3]
  74  0047  0F09        	mov a,9
  74  0048  0080     R  	mov _SDK_SYS[2],a
  74  0049              _L90:
  80  0049              #line 80 "F:\CZW_Word\项目\额温计\Code\SW_BH67F2752_DemoCode_Lib_20180919\SW_BH67F2752_DemoCode_Lib_20180919\USER\Work.c"
  80  0049  3800     E  	snz _SDK_KEY[8].1
  80  004A  2800     R  	jmp _L94
  82  004B              #line 82 "F:\CZW_Word\项目\额温计\Code\SW_BH67F2752_DemoCode_Lib_20180919\SW_BH67F2752_DemoCode_Lib_20180919\USER\Work.c"
  82  004B  3400     E  	clr _SDK_KEY[8].1
  84  004C              #line 84 "F:\CZW_Word\项目\额温计\Code\SW_BH67F2752_DemoCode_Lib_20180919\SW_BH67F2752_DemoCode_Lib_20180919\USER\Work.c"
  84  004C  1400     R  	inca _SDK_SYS[1]
  84  004D  0080     E  	mov ra,a
  86  004E              #line 86 "F:\CZW_Word\项目\额温计\Code\SW_BH67F2752_DemoCode_Lib_20180919\SW_BH67F2752_DemoCode_Lib_20180919\USER\Work.c"
  86  004E  0700     E  	mov a,ra
  86  004F  0A04        	sub a,4
  86  0050  3D0A        	sz z
  86  0051  2800     R  	jmp _L95
  84  0052              #line 84 "F:\CZW_Word\项目\额温计\Code\SW_BH67F2752_DemoCode_Lib_20180919\SW_BH67F2752_DemoCode_Lib_20180919\USER\Work.c"
  84  0052  0700     E  	mov a,ra
  84  0053  0080     R  	mov _SDK_SYS[1],a
  84  0054  2800     R  	jmp _L96
  84  0055              _L95:
  87  0055              #line 87 "F:\CZW_Word\项目\额温计\Code\SW_BH67F2752_DemoCode_Lib_20180919\SW_BH67F2752_DemoCode_Lib_20180919\USER\Work.c"
  87  0055  0F01        	mov a,1
  87  0056  0080     R  	mov _SDK_SYS[1],a
  87  0057              _L96:
  89  0057              #line 89 "F:\CZW_Word\项目\额温计\Code\SW_BH67F2752_DemoCode_Lib_20180919\SW_BH67F2752_DemoCode_Lib_20180919\USER\Work.c"
  89  0057  0700     R  	mov a,_SDK_SYS[1]
  89  0058  2000     E  	call _fun_LCD_Display_Mode
  89  0059              _L94:
  94  0059              #line 94 "F:\CZW_Word\项目\额温计\Code\SW_BH67F2752_DemoCode_Lib_20180919\SW_BH67F2752_DemoCode_Lib_20180919\USER\Work.c"
  94  0059  3800     E  	snz _SDK_KEY[9].1
  94  005A  2800     R  	jmp _L97
  96  005B              #line 96 "F:\CZW_Word\项目\额温计\Code\SW_BH67F2752_DemoCode_Lib_20180919\SW_BH67F2752_DemoCode_Lib_20180919\USER\Work.c"
  96  005B  3400     E  	clr _SDK_KEY[9].1
  97  005C              #line 97 "F:\CZW_Word\项目\额温计\Code\SW_BH67F2752_DemoCode_Lib_20180919\SW_BH67F2752_DemoCode_Lib_20180919\USER\Work.c"
  97  005C  1F00     R  	clr _SDK_SYS[3]
  97  005D  0F04        	mov a,4
  97  005E  0080     R  	mov _SDK_SYS[2],a
  98  005F              #line 98 "F:\CZW_Word\项目\额温计\Code\SW_BH67F2752_DemoCode_Lib_20180919\SW_BH67F2752_DemoCode_Lib_20180919\USER\Work.c"
  98  005F  0F00        	mov a,0
  98  0060  2000     E  	call _fun_LCD_Display_Cor
  98  0061              _L97:
文件：Work.c       编译器版本 HGASM 0202 页次13

 101  0061              #line 101 "F:\CZW_Word\项目\额温计\Code\SW_BH67F2752_DemoCode_Lib_20180919\SW_BH67F2752_DemoCode_Lib_20180919\USER\Work.c"
 101  0061  3800     E  	snz _SDK_KEY[8].2
 101  0062  2800     R  	jmp _L78
 103  0063              #line 103 "F:\CZW_Word\项目\额温计\Code\SW_BH67F2752_DemoCode_Lib_20180919\SW_BH67F2752_DemoCode_Lib_20180919\USER\Work.c"
 103  0063  3400     E  	clr _SDK_KEY[8].2
 105  0064              #line 105 "F:\CZW_Word\项目\额温计\Code\SW_BH67F2752_DemoCode_Lib_20180919\SW_BH67F2752_DemoCode_Lib_20180919\USER\Work.c"
 105  0064  1400     R  	inca _SDK_SYS[0]
 105  0065  0080     E  	mov ra,a
 107  0066              #line 107 "F:\CZW_Word\项目\额温计\Code\SW_BH67F2752_DemoCode_Lib_20180919\SW_BH67F2752_DemoCode_Lib_20180919\USER\Work.c"
 107  0066  0700     E  	mov a,ra
 107  0067  0A03        	sub a,3
 107  0068  3D0A        	sz z
 107  0069  2800     R  	jmp _L99
 105  006A              #line 105 "F:\CZW_Word\项目\额温计\Code\SW_BH67F2752_DemoCode_Lib_20180919\SW_BH67F2752_DemoCode_Lib_20180919\USER\Work.c"
 105  006A  0700     E  	mov a,ra
 105  006B  0080     R  	mov _SDK_SYS[0],a
 105  006C  2800     R  	jmp _L100
 105  006D              _L99:
 108  006D              #line 108 "F:\CZW_Word\项目\额温计\Code\SW_BH67F2752_DemoCode_Lib_20180919\SW_BH67F2752_DemoCode_Lib_20180919\USER\Work.c"
 108  006D  0F01        	mov a,1
 108  006E  0080     R  	mov _SDK_SYS[0],a
 108  006F              _L100:
 110  006F              #line 110 "F:\CZW_Word\项目\额温计\Code\SW_BH67F2752_DemoCode_Lib_20180919\SW_BH67F2752_DemoCode_Lib_20180919\USER\Work.c"
 110  006F  0700     R  	mov a,_SDK_SYS[0]
 110  0070  2000     E  	call _fun_LCD_Display_CF
 112  0071              #line 112 "F:\CZW_Word\项目\额温计\Code\SW_BH67F2752_DemoCode_Lib_20180919\SW_BH67F2752_DemoCode_Lib_20180919\USER\Work.c"
 112  0071  0700     R  	mov a,_SDK_SYS[0]
 112  0072  0080     R  	mov _fun_WorkModeScan_2[0],a
 112  0073  1700     R  	sdza _fun_WorkModeScan_2[0]
 112  0074  2800     R  	jmp _L101
 114  0075              #line 114 "F:\CZW_Word\项目\额温计\Code\SW_BH67F2752_DemoCode_Lib_20180919\SW_BH67F2752_DemoCode_Lib_20180919\USER\Work.c"
 114  0075  0700     R  	mov a,_SDK_SYS[1]
 114  0076  0080     R  	mov _fun_WorkModeScan_2[0],a
 114  0077  1700     R  	sdza _fun_WorkModeScan_2[0]
 114  0078  2800     R  	jmp _L102
 114  0079              _L104:
 116  0079              #line 116 "F:\CZW_Word\项目\额温计\Code\SW_BH67F2752_DemoCode_Lib_20180919\SW_BH67F2752_DemoCode_Lib_20180919\USER\Work.c"
 116  0079  0700     R  	mov a,_SDK_CAL[10]
 116  007A  0080     E  	mov _LCD_DISPLAY_NUM_2[0],a
 116  007B  0700     R  	mov a,_SDK_CAL[11]
 116  007C  0080     E  	mov _LCD_DISPLAY_NUM_2[1],a
 116  007D  2800     R  	jmp _L139
 116  007E              _L102:
 118  007E              #line 118 "F:\CZW_Word\项目\额温计\Code\SW_BH67F2752_DemoCode_Lib_20180919\SW_BH67F2752_DemoCode_Lib_20180919\USER\Work.c"
 118  007E  0700     R  	mov a,_fun_WorkModeScan_2[0]
 118  007F  0A02        	sub a,2
 118  0080  390A        	snz z
 118  0081  2800     R  	jmp _L103
 120  0082              #line 120 "F:\CZW_Word\项目\额温计\Code\SW_BH67F2752_DemoCode_Lib_20180919\SW_BH67F2752_DemoCode_Lib_20180919\USER\Work.c"
 120  0082  0700     R  	mov a,_SDK_CAL[8]
 120  0083  0080     E  	mov _LCD_DISPLAY_NUM_2[0],a
 120  0084  0700     R  	mov a,_SDK_CAL[9]
 120  0085  0080     E  	mov _LCD_DISPLAY_NUM_2[1],a
 120  0086              _L139:
 120  0086  0F00        	mov a,0
 120  0087              _L140:
 120  0087  2000     E  	call _LCD_DISPLAY_NUM
 120  0088  2800     R  	jmp _L78
 120  0089              _L103:
 122  0089              #line 122 "F:\CZW_Word\项目\额温计\Code\SW_BH67F2752_DemoCode_Lib_20180919\SW_BH67F2752_DemoCode_Lib_20180919\USER\Work.c"
文件：Work.c       编译器版本 HGASM 0202 页次14

 122  0089  0700     R  	mov a,_fun_WorkModeScan_2[0]
 122  008A  0A03        	sub a,3
 122  008B  390A        	snz z
 122  008C  2800     R  	jmp _L78
 122  008D  2800     R  	jmp _L104
 122  008E              _L101:
 128  008E              #line 128 "F:\CZW_Word\项目\额温计\Code\SW_BH67F2752_DemoCode_Lib_20180919\SW_BH67F2752_DemoCode_Lib_20180919\USER\Work.c"
 128  008E  0700     R  	mov a,_fun_WorkModeScan_2[0]
 128  008F  0A02        	sub a,2
 128  0090  390A        	snz z
 128  0091  2800     R  	jmp _L78
 130  0092              #line 130 "F:\CZW_Word\项目\额温计\Code\SW_BH67F2752_DemoCode_Lib_20180919\SW_BH67F2752_DemoCode_Lib_20180919\USER\Work.c"
 130  0092  0700     R  	mov a,_SDK_SYS[1]
 130  0093  0080     R  	mov _fun_WorkModeScan_2[0],a
 130  0094  1700     R  	sdza _fun_WorkModeScan_2[0]
 130  0095  2800     R  	jmp _L105
 130  0096              _L107:
 132  0096              #line 132 "F:\CZW_Word\项目\额温计\Code\SW_BH67F2752_DemoCode_Lib_20180919\SW_BH67F2752_DemoCode_Lib_20180919\USER\Work.c"
 132  0096  0700     R  	mov a,_SDK_CAL[11]
 132  0097  0080     E  	mov _builtin_holtek_mant1[1],a
 132  0098  0700     R  	mov a,_SDK_CAL[10]
 132  0099  0080     E  	mov _builtin_holtek_mant1[0],a
 132  009A  3400     E  	clr _builtin_holtek_signs.0
 132  009B  2000     E  	call _builtin_holtek_uitod
 132  009C  0700     E  	mov a,_builtin_holtek_mant12p[0]
 132  009D  0080     E  	mov rg,a
 132  009E  0700     E  	mov a,_builtin_holtek_mant1[2]
 132  009F  0080     E  	mov rf,a
 132  00A0  0700     E  	mov a,_builtin_holtek_mant1[1]
 132  00A1  0080     E  	mov re,a
 132  00A2  0700     E  	mov a,_builtin_holtek_mant1[0]
 132  00A3  0080     E  	mov rd,a
 132  00A4  2800     R  	jmp _L141
 132  00A5              _L105:
 134  00A5              #line 134 "F:\CZW_Word\项目\额温计\Code\SW_BH67F2752_DemoCode_Lib_20180919\SW_BH67F2752_DemoCode_Lib_20180919\USER\Work.c"
 134  00A5  0700     R  	mov a,_fun_WorkModeScan_2[0]
 134  00A6  0A02        	sub a,2
 134  00A7  390A        	snz z
 134  00A8  2800     R  	jmp _L106
 136  00A9              #line 136 "F:\CZW_Word\项目\额温计\Code\SW_BH67F2752_DemoCode_Lib_20180919\SW_BH67F2752_DemoCode_Lib_20180919\USER\Work.c"
 136  00A9  0700     R  	mov a,_SDK_CAL[9]
 136  00AA  0080     E  	mov _builtin_holtek_mant1[1],a
 136  00AB  0700     R  	mov a,_SDK_CAL[8]
 136  00AC  0080     E  	mov _builtin_holtek_mant1[0],a
 136  00AD  3400     E  	clr _builtin_holtek_signs.0
 136  00AE  2000     E  	call _builtin_holtek_uitod
 136  00AF  0700     E  	mov a,_builtin_holtek_mant12p[0]
 136  00B0  0080     E  	mov rg,a
 136  00B1  0700     E  	mov a,_builtin_holtek_mant1[2]
 136  00B2  0080     E  	mov rf,a
 136  00B3  0700     E  	mov a,_builtin_holtek_mant1[1]
 136  00B4  0080     E  	mov re,a
 136  00B5  0700     E  	mov a,_builtin_holtek_mant1[0]
 136  00B6  0080     E  	mov rd,a
 136  00B7              _L141:
 136  00B7  0700     E  	mov a,rg
 136  00B8  0080     E  	mov _builtin_holtek_mant12p[0],a
 136  00B9  0700     E  	mov a,rf
 136  00BA  0080     E  	mov _builtin_holtek_mant1[2],a
 136  00BB  0700     E  	mov a,re
文件：Work.c       编译器版本 HGASM 0202 页次15

 136  00BC  0080     E  	mov _builtin_holtek_mant1[1],a
 136  00BD  0700     E  	mov a,rd
 136  00BE  0080     E  	mov _builtin_holtek_mant1[0],a
 136  00BF  0F3F        	mov a,63
 136  00C0  0080     E  	mov _builtin_holtek_mant12p[1],a
 136  00C1  0FE6        	mov a,230
 136  00C2  0080     E  	mov _builtin_holtek_mant2[2],a
 136  00C3  0F66        	mov a,102
 136  00C4  0080     E  	mov _builtin_holtek_mant2[1],a
 136  00C5  0F66        	mov a,102
 136  00C6  0080     E  	mov _builtin_holtek_mant2[0],a
 136  00C7  2000     E  	call _builtin_holtek_dtmul
 136  00C8  0700     E  	mov a,_builtin_holtek_mant12p[0]
 136  00C9  0080     E  	mov rg,a
 136  00CA  0700     E  	mov a,_builtin_holtek_mant1[2]
 136  00CB  0080     E  	mov rf,a
 136  00CC  0700     E  	mov a,_builtin_holtek_mant1[1]
 136  00CD  0080     E  	mov re,a
 136  00CE  0700     E  	mov a,_builtin_holtek_mant1[0]
 136  00CF  0080     E  	mov rd,a
 136  00D0  0700     E  	mov a,rg
 136  00D1  0080     E  	mov _builtin_holtek_mant12p[0],a
 136  00D2  0700     E  	mov a,rf
 136  00D3  0080     E  	mov _builtin_holtek_mant1[2],a
 136  00D4  0700     E  	mov a,re
 136  00D5  0080     E  	mov _builtin_holtek_mant1[1],a
 136  00D6  0700     E  	mov a,rd
 136  00D7  0080     E  	mov _builtin_holtek_mant1[0],a
 136  00D8  0F42        	mov a,66
 136  00D9  0080     E  	mov _builtin_holtek_mant12p[1],a
 136  00DA  0F00        	mov a,0
 136  00DB  0080     E  	mov _builtin_holtek_mant2[2],a
 136  00DC  0F00        	mov a,0
 136  00DD  0080     E  	mov _builtin_holtek_mant2[1],a
 136  00DE  0F00        	mov a,0
 136  00DF  0080     E  	mov _builtin_holtek_mant2[0],a
 136  00E0  2000     E  	call _builtin_holtek_dtadd
 136  00E1  0700     E  	mov a,_builtin_holtek_mant12p[0]
 136  00E2  0080     E  	mov rg,a
 136  00E3  0700     E  	mov a,_builtin_holtek_mant1[2]
 136  00E4  0080     E  	mov rf,a
 136  00E5  0700     E  	mov a,_builtin_holtek_mant1[1]
 136  00E6  0080     E  	mov re,a
 136  00E7  0700     E  	mov a,_builtin_holtek_mant1[0]
 136  00E8  0080     E  	mov rd,a
 136  00E9  0700     E  	mov a,rg
 136  00EA  0080     E  	mov _builtin_holtek_mant12p[0],a
 136  00EB  0700     E  	mov a,rf
 136  00EC  0080     E  	mov _builtin_holtek_mant1[2],a
 136  00ED  0700     E  	mov a,re
 136  00EE  0080     E  	mov _builtin_holtek_mant1[1],a
 136  00EF  0700     E  	mov a,rd
 136  00F0  0080     E  	mov _builtin_holtek_mant1[0],a
 136  00F1  2000     E  	call _builtin_holtek_dtol
 136  00F2  0700     E  	mov a,_builtin_holtek_mant12p[0]
 136  00F3  0080     E  	mov rg,a
 136  00F4  0700     E  	mov a,_builtin_holtek_mant1[2]
 136  00F5  0080     E  	mov rf,a
 136  00F6  0700     E  	mov a,_builtin_holtek_mant1[1]
 136  00F7  0080     E  	mov re,a
文件：Work.c       编译器版本 HGASM 0202 页次16

 136  00F8  0700     E  	mov a,_builtin_holtek_mant1[0]
 136  00F9  0080     E  	mov rd,a
 136  00FA  0700     E  	mov a,rd
 136  00FB  0080     E  	mov _LCD_DISPLAY_NUM_2[0],a
 136  00FC  0700     E  	mov a,re
 136  00FD  0080     E  	mov _LCD_DISPLAY_NUM_2[1],a
 136  00FE  0F01        	mov a,1
 136  00FF  2800     R  	jmp _L140
 136  0100              _L106:
 138  0100              #line 138 "F:\CZW_Word\项目\额温计\Code\SW_BH67F2752_DemoCode_Lib_20180919\SW_BH67F2752_DemoCode_Lib_20180919\USER\Work.c"
 138  0100  0700     R  	mov a,_fun_WorkModeScan_2[0]
 138  0101  0A03        	sub a,3
 138  0102  390A        	snz z
 138  0103  2800     R  	jmp _L78
 138  0104  2800     R  	jmp _L107
 138  0105              _L83:
 155  0105              #line 155 "F:\CZW_Word\项目\额温计\Code\SW_BH67F2752_DemoCode_Lib_20180919\SW_BH67F2752_DemoCode_Lib_20180919\USER\Work.c"
 155  0105  2000     R  	call _fun_get_VTP
 155  0106  0080     E  	mov ra,a
 155  0107  1E00     E  	snz ra
 155  0108  2800     R  	jmp _L108
 157  0109              #line 157 "F:\CZW_Word\项目\额温计\Code\SW_BH67F2752_DemoCode_Lib_20180919\SW_BH67F2752_DemoCode_Lib_20180919\USER\Work.c"
 157  0109  0700     R  	mov a,_SDK_CAL[14]
 157  010A  0080     E  	mov _fun_Tsen_Calculate_2[0],a
 157  010B  0700     R  	mov a,_SDK_CAL[15]
 157  010C  0080     E  	mov _fun_Tsen_Calculate_2[1],a
 157  010D  2000     E  	call _fun_Tsen_Calculate
 157  010E  0700     E  	mov a,ra
 157  010F  0080     R  	mov _SDK_CAL[8],a
 157  0110  0700     E  	mov a,rb
 157  0111  0080     R  	mov _SDK_CAL[9],a
 158  0112              #line 158 "F:\CZW_Word\项目\额温计\Code\SW_BH67F2752_DemoCode_Lib_20180919\SW_BH67F2752_DemoCode_Lib_20180919\USER\Work.c"
 158  0112  0700     R  	mov a,_SDK_CAL[4]
 158  0113  0080     E  	mov _fun_Tobj_Calculate_2[2],a
 158  0114  0700     R  	mov a,_SDK_CAL[5]
 158  0115  0080     E  	mov _fun_Tobj_Calculate_2[3],a
 158  0116  0700     E  	mov a,ra
 158  0117  0080     E  	mov _fun_Tobj_Calculate_2[0],a
 158  0118  0700     E  	mov a,rb
 158  0119  0080     E  	mov _fun_Tobj_Calculate_2[1],a
 158  011A  2000     E  	call _fun_Tobj_Calculate
 158  011B  0700     E  	mov a,ra
 158  011C  0080     R  	mov _SDK_CAL[10],a
 158  011D  0700     E  	mov a,rb
 158  011E  0080     R  	mov _SDK_CAL[11],a
 159  011F              #line 159 "F:\CZW_Word\项目\额温计\Code\SW_BH67F2752_DemoCode_Lib_20180919\SW_BH67F2752_DemoCode_Lib_20180919\USER\Work.c"
 159  011F  0700     E  	mov a,ra
 159  0120  0080     E  	mov _fun_ObjTemp_DataHandle_2[0],a
 159  0121  0700     E  	mov a,rb
 159  0122  0080     E  	mov _fun_ObjTemp_DataHandle_2[1],a
 159  0123  2000     E  	call _fun_ObjTemp_DataHandle
 159  0124  0700     E  	mov a,ra
 159  0125  0080     R  	mov _SDK_CAL[10],a
 159  0126  0700     E  	mov a,rb
 159  0127  0080     R  	mov _SDK_CAL[11],a
 160  0128              #line 160 "F:\CZW_Word\项目\额温计\Code\SW_BH67F2752_DemoCode_Lib_20180919\SW_BH67F2752_DemoCode_Lib_20180919\USER\Work.c"
 160  0128  0700     E  	mov a,ra
 160  0129  0080     E  	mov _fun_Temp_SurfaceToBody_2[0],a
 160  012A  0700     E  	mov a,rb
 160  012B  0080     E  	mov _fun_Temp_SurfaceToBody_2[1],a
文件：Work.c       编译器版本 HGASM 0202 页次17

 160  012C  2000     E  	call _fun_Temp_SurfaceToBody
 160  012D  0700     E  	mov a,ra
 160  012E  0080     R  	mov _SDK_CAL[12],a
 160  012F  0700     E  	mov a,rb
 160  0130  0080     R  	mov _SDK_CAL[13],a
 162  0131              #line 162 "F:\CZW_Word\项目\额温计\Code\SW_BH67F2752_DemoCode_Lib_20180919\SW_BH67F2752_DemoCode_Lib_20180919\USER\Work.c"
 162  0131  0F01        	mov a,1
 162  0132  2000     E  	call _fun_BeepSet
 163  0133              #line 163 "F:\CZW_Word\项目\额温计\Code\SW_BH67F2752_DemoCode_Lib_20180919\SW_BH67F2752_DemoCode_Lib_20180919\USER\Work.c"
 163  0133  0700     R  	mov a,_SDK_SYS[0]
 163  0134  0080     R  	mov _fun_WorkModeScan_2[0],a
 163  0135  1700     R  	sdza _fun_WorkModeScan_2[0]
 163  0136  2800     R  	jmp _L109
 165  0137              #line 165 "F:\CZW_Word\项目\额温计\Code\SW_BH67F2752_DemoCode_Lib_20180919\SW_BH67F2752_DemoCode_Lib_20180919\USER\Work.c"
 165  0137  0700     R  	mov a,_SDK_CAL[10]
 165  0138  0080     E  	mov _LCD_DISPLAY_NUM_2[0],a
 165  0139  0700     R  	mov a,_SDK_CAL[11]
 165  013A  0080     E  	mov _LCD_DISPLAY_NUM_2[1],a
 165  013B  0F00        	mov a,0
 165  013C  2800     R  	jmp _L136
 165  013D              _L109:
 167  013D              #line 167 "F:\CZW_Word\项目\额温计\Code\SW_BH67F2752_DemoCode_Lib_20180919\SW_BH67F2752_DemoCode_Lib_20180919\USER\Work.c"
 167  013D  0700     R  	mov a,_fun_WorkModeScan_2[0]
 167  013E  0A02        	sub a,2
 167  013F  390A        	snz z
 167  0140  2800     R  	jmp _L135
 169  0141              #line 169 "F:\CZW_Word\项目\额温计\Code\SW_BH67F2752_DemoCode_Lib_20180919\SW_BH67F2752_DemoCode_Lib_20180919\USER\Work.c"
 169  0141  0700     R  	mov a,_SDK_CAL[11]
 169  0142  0080     E  	mov _builtin_holtek_mant1[1],a
 169  0143  0700     R  	mov a,_SDK_CAL[10]
 169  0144  0080     E  	mov _builtin_holtek_mant1[0],a
 169  0145  3400     E  	clr _builtin_holtek_signs.0
 169  0146  2000     E  	call _builtin_holtek_uitod
 169  0147  0700     E  	mov a,_builtin_holtek_mant12p[0]
 169  0148  0080     E  	mov rg,a
 169  0149  0700     E  	mov a,_builtin_holtek_mant1[2]
 169  014A  0080     E  	mov rf,a
 169  014B  0700     E  	mov a,_builtin_holtek_mant1[1]
 169  014C  0080     E  	mov re,a
 169  014D  0700     E  	mov a,_builtin_holtek_mant1[0]
 169  014E  0080     E  	mov rd,a
 169  014F  0700     E  	mov a,rg
 169  0150  0080     E  	mov _builtin_holtek_mant12p[0],a
 169  0151  0700     E  	mov a,rf
 169  0152  0080     E  	mov _builtin_holtek_mant1[2],a
 169  0153  0700     E  	mov a,re
 169  0154  0080     E  	mov _builtin_holtek_mant1[1],a
 169  0155  0700     E  	mov a,rd
 169  0156  0080     E  	mov _builtin_holtek_mant1[0],a
 169  0157  0F3F        	mov a,63
 169  0158  0080     E  	mov _builtin_holtek_mant12p[1],a
 169  0159  0FE6        	mov a,230
 169  015A  0080     E  	mov _builtin_holtek_mant2[2],a
 169  015B  0F66        	mov a,102
 169  015C  0080     E  	mov _builtin_holtek_mant2[1],a
 169  015D  0F66        	mov a,102
 169  015E  0080     E  	mov _builtin_holtek_mant2[0],a
 169  015F  2000     E  	call _builtin_holtek_dtmul
 169  0160  0700     E  	mov a,_builtin_holtek_mant12p[0]
 169  0161  0080     E  	mov rg,a
文件：Work.c       编译器版本 HGASM 0202 页次18

 169  0162  0700     E  	mov a,_builtin_holtek_mant1[2]
 169  0163  0080     E  	mov rf,a
 169  0164  0700     E  	mov a,_builtin_holtek_mant1[1]
 169  0165  0080     E  	mov re,a
 169  0166  0700     E  	mov a,_builtin_holtek_mant1[0]
 169  0167  0080     E  	mov rd,a
 169  0168  0700     E  	mov a,rg
 169  0169  0080     E  	mov _builtin_holtek_mant12p[0],a
 169  016A  0700     E  	mov a,rf
 169  016B  0080     E  	mov _builtin_holtek_mant1[2],a
 169  016C  0700     E  	mov a,re
 169  016D  0080     E  	mov _builtin_holtek_mant1[1],a
 169  016E  0700     E  	mov a,rd
 169  016F  0080     E  	mov _builtin_holtek_mant1[0],a
 169  0170  0F42        	mov a,66
 169  0171  0080     E  	mov _builtin_holtek_mant12p[1],a
 169  0172  0F00        	mov a,0
 169  0173  0080     E  	mov _builtin_holtek_mant2[2],a
 169  0174  0F00        	mov a,0
 169  0175  0080     E  	mov _builtin_holtek_mant2[1],a
 169  0176  0F00        	mov a,0
 169  0177  0080     E  	mov _builtin_holtek_mant2[0],a
 169  0178  2000     E  	call _builtin_holtek_dtadd
 169  0179  0700     E  	mov a,_builtin_holtek_mant12p[0]
 169  017A  0080     E  	mov rg,a
 169  017B  0700     E  	mov a,_builtin_holtek_mant1[2]
 169  017C  0080     E  	mov rf,a
 169  017D  0700     E  	mov a,_builtin_holtek_mant1[1]
 169  017E  0080     E  	mov re,a
 169  017F  0700     E  	mov a,_builtin_holtek_mant1[0]
 169  0180  0080     E  	mov rd,a
 169  0181  0700     E  	mov a,rg
 169  0182  0080     E  	mov _builtin_holtek_mant12p[0],a
 169  0183  0700     E  	mov a,rf
 169  0184  0080     E  	mov _builtin_holtek_mant1[2],a
 169  0185  0700     E  	mov a,re
 169  0186  0080     E  	mov _builtin_holtek_mant1[1],a
 169  0187  0700     E  	mov a,rd
 169  0188  0080     E  	mov _builtin_holtek_mant1[0],a
 169  0189  2000     E  	call _builtin_holtek_dtol
 169  018A  0700     E  	mov a,_builtin_holtek_mant12p[0]
 169  018B  0080     E  	mov rg,a
 169  018C  0700     E  	mov a,_builtin_holtek_mant1[2]
 169  018D  0080     E  	mov rf,a
 169  018E  0700     E  	mov a,_builtin_holtek_mant1[1]
 169  018F  0080     E  	mov re,a
 169  0190  0700     E  	mov a,_builtin_holtek_mant1[0]
 169  0191  0080     E  	mov rd,a
 169  0192  0700     E  	mov a,rd
 169  0193  0080     E  	mov _LCD_DISPLAY_NUM_2[0],a
 169  0194  0700     E  	mov a,re
 169  0195  0080     E  	mov _LCD_DISPLAY_NUM_2[1],a
 169  0196  0F01        	mov a,1
 169  0197              _L136:
 169  0197  2000     E  	call _LCD_DISPLAY_NUM
 169  0198  2800     R  	jmp _L135
 169  0199              _L108:
 176  0199              #line 176 "F:\CZW_Word\项目\额温计\Code\SW_BH67F2752_DemoCode_Lib_20180919\SW_BH67F2752_DemoCode_Lib_20180919\USER\Work.c"
 176  0199  2000     E  	call _fun_LCD_Display____
 176  019A  2800     R  	jmp _L78
文件：Work.c       编译器版本 HGASM 0202 页次19

 176  019B              _L85:
 182  019B              #line 182 "F:\CZW_Word\项目\额温计\Code\SW_BH67F2752_DemoCode_Lib_20180919\SW_BH67F2752_DemoCode_Lib_20180919\USER\Work.c"
 182  019B  2000     R  	call _fun_get_VTP
 182  019C  0080     E  	mov ra,a
 182  019D  1E00     E  	snz ra
 182  019E  2800     R  	jmp _L111
 184  019F              #line 184 "F:\CZW_Word\项目\额温计\Code\SW_BH67F2752_DemoCode_Lib_20180919\SW_BH67F2752_DemoCode_Lib_20180919\USER\Work.c"
 184  019F  0700     R  	mov a,_SDK_CAL[14]
 184  01A0  0080     E  	mov _fun_Tsen_Calculate_2[0],a
 184  01A1  0700     R  	mov a,_SDK_CAL[15]
 184  01A2  0080     E  	mov _fun_Tsen_Calculate_2[1],a
 184  01A3  2000     E  	call _fun_Tsen_Calculate
 184  01A4  0700     E  	mov a,ra
 184  01A5  0080     R  	mov _SDK_CAL[8],a
 184  01A6  0700     E  	mov a,rb
 184  01A7  0080     R  	mov _SDK_CAL[9],a
 186  01A8              #line 186 "F:\CZW_Word\项目\额温计\Code\SW_BH67F2752_DemoCode_Lib_20180919\SW_BH67F2752_DemoCode_Lib_20180919\USER\Work.c"
 186  01A8  0F01        	mov a,1
 186  01A9  2000     E  	call _fun_BeepSet
 188  01AA              #line 188 "F:\CZW_Word\项目\额温计\Code\SW_BH67F2752_DemoCode_Lib_20180919\SW_BH67F2752_DemoCode_Lib_20180919\USER\Work.c"
 188  01AA  0700     R  	mov a,_SDK_SYS[0]
 188  01AB  0080     R  	mov _fun_WorkModeScan_2[0],a
 188  01AC  1700     R  	sdza _fun_WorkModeScan_2[0]
 188  01AD  2800     R  	jmp _L112
 190  01AE              #line 190 "F:\CZW_Word\项目\额温计\Code\SW_BH67F2752_DemoCode_Lib_20180919\SW_BH67F2752_DemoCode_Lib_20180919\USER\Work.c"
 190  01AE  0700     R  	mov a,_SDK_CAL[8]
 190  01AF  0080     E  	mov _LCD_DISPLAY_NUM_2[0],a
 190  01B0  0700     R  	mov a,_SDK_CAL[9]
 190  01B1  0080     E  	mov _LCD_DISPLAY_NUM_2[1],a
 190  01B2  0F00        	mov a,0
 190  01B3  2800     R  	jmp _L137
 190  01B4              _L112:
 192  01B4              #line 192 "F:\CZW_Word\项目\额温计\Code\SW_BH67F2752_DemoCode_Lib_20180919\SW_BH67F2752_DemoCode_Lib_20180919\USER\Work.c"
 192  01B4  0700     R  	mov a,_fun_WorkModeScan_2[0]
 192  01B5  0A02        	sub a,2
 192  01B6  390A        	snz z
 192  01B7  2800     R  	jmp _L113
 194  01B8              #line 194 "F:\CZW_Word\项目\额温计\Code\SW_BH67F2752_DemoCode_Lib_20180919\SW_BH67F2752_DemoCode_Lib_20180919\USER\Work.c"
 194  01B8  0700     R  	mov a,_SDK_CAL[9]
 194  01B9  0080     E  	mov _builtin_holtek_mant1[1],a
 194  01BA  0700     R  	mov a,_SDK_CAL[8]
 194  01BB  0080     E  	mov _builtin_holtek_mant1[0],a
 194  01BC  3400     E  	clr _builtin_holtek_signs.0
 194  01BD  2000     E  	call _builtin_holtek_uitod
 194  01BE  0700     E  	mov a,_builtin_holtek_mant12p[0]
 194  01BF  0080     E  	mov rg,a
 194  01C0  0700     E  	mov a,_builtin_holtek_mant1[2]
 194  01C1  0080     E  	mov rf,a
 194  01C2  0700     E  	mov a,_builtin_holtek_mant1[1]
 194  01C3  0080     E  	mov re,a
 194  01C4  0700     E  	mov a,_builtin_holtek_mant1[0]
 194  01C5  0080     E  	mov rd,a
 194  01C6  0700     E  	mov a,rg
 194  01C7  0080     E  	mov _builtin_holtek_mant12p[0],a
 194  01C8  0700     E  	mov a,rf
 194  01C9  0080     E  	mov _builtin_holtek_mant1[2],a
 194  01CA  0700     E  	mov a,re
 194  01CB  0080     E  	mov _builtin_holtek_mant1[1],a
 194  01CC  0700     E  	mov a,rd
 194  01CD  0080     E  	mov _builtin_holtek_mant1[0],a
文件：Work.c       编译器版本 HGASM 0202 页次20

 194  01CE  0F3F        	mov a,63
 194  01CF  0080     E  	mov _builtin_holtek_mant12p[1],a
 194  01D0  0FE6        	mov a,230
 194  01D1  0080     E  	mov _builtin_holtek_mant2[2],a
 194  01D2  0F66        	mov a,102
 194  01D3  0080     E  	mov _builtin_holtek_mant2[1],a
 194  01D4  0F66        	mov a,102
 194  01D5  0080     E  	mov _builtin_holtek_mant2[0],a
 194  01D6  2000     E  	call _builtin_holtek_dtmul
 194  01D7  0700     E  	mov a,_builtin_holtek_mant12p[0]
 194  01D8  0080     E  	mov rg,a
 194  01D9  0700     E  	mov a,_builtin_holtek_mant1[2]
 194  01DA  0080     E  	mov rf,a
 194  01DB  0700     E  	mov a,_builtin_holtek_mant1[1]
 194  01DC  0080     E  	mov re,a
 194  01DD  0700     E  	mov a,_builtin_holtek_mant1[0]
 194  01DE  0080     E  	mov rd,a
 194  01DF  0700     E  	mov a,rg
 194  01E0  0080     E  	mov _builtin_holtek_mant12p[0],a
 194  01E1  0700     E  	mov a,rf
 194  01E2  0080     E  	mov _builtin_holtek_mant1[2],a
 194  01E3  0700     E  	mov a,re
 194  01E4  0080     E  	mov _builtin_holtek_mant1[1],a
 194  01E5  0700     E  	mov a,rd
 194  01E6  0080     E  	mov _builtin_holtek_mant1[0],a
 194  01E7  0F42        	mov a,66
 194  01E8  0080     E  	mov _builtin_holtek_mant12p[1],a
 194  01E9  0F00        	mov a,0
 194  01EA  0080     E  	mov _builtin_holtek_mant2[2],a
 194  01EB  0F00        	mov a,0
 194  01EC  0080     E  	mov _builtin_holtek_mant2[1],a
 194  01ED  0F00        	mov a,0
 194  01EE  0080     E  	mov _builtin_holtek_mant2[0],a
 194  01EF  2000     E  	call _builtin_holtek_dtadd
 194  01F0  0700     E  	mov a,_builtin_holtek_mant12p[0]
 194  01F1  0080     E  	mov rg,a
 194  01F2  0700     E  	mov a,_builtin_holtek_mant1[2]
 194  01F3  0080     E  	mov rf,a
 194  01F4  0700     E  	mov a,_builtin_holtek_mant1[1]
 194  01F5  0080     E  	mov re,a
 194  01F6  0700     E  	mov a,_builtin_holtek_mant1[0]
 194  01F7  0080     E  	mov rd,a
 194  01F8  0700     E  	mov a,rg
 194  01F9  0080     E  	mov _builtin_holtek_mant12p[0],a
 194  01FA  0700     E  	mov a,rf
 194  01FB  0080     E  	mov _builtin_holtek_mant1[2],a
 194  01FC  0700     E  	mov a,re
 194  01FD  0080     E  	mov _builtin_holtek_mant1[1],a
 194  01FE  0700     E  	mov a,rd
 194  01FF  0080     E  	mov _builtin_holtek_mant1[0],a
 194  0200  2000     E  	call _builtin_holtek_dtol
 194  0201  0700     E  	mov a,_builtin_holtek_mant12p[0]
 194  0202  0080     E  	mov rg,a
 194  0203  0700     E  	mov a,_builtin_holtek_mant1[2]
 194  0204  0080     E  	mov rf,a
 194  0205  0700     E  	mov a,_builtin_holtek_mant1[1]
 194  0206  0080     E  	mov re,a
 194  0207  0700     E  	mov a,_builtin_holtek_mant1[0]
 194  0208  0080     E  	mov rd,a
 194  0209  0700     E  	mov a,rd
文件：Work.c       编译器版本 HGASM 0202 页次21

 194  020A  0080     E  	mov _LCD_DISPLAY_NUM_2[0],a
 194  020B  0700     E  	mov a,re
 194  020C  0080     E  	mov _LCD_DISPLAY_NUM_2[1],a
 194  020D  0F01        	mov a,1
 194  020E              _L137:
 194  020E  2000     E  	call _LCD_DISPLAY_NUM
 194  020F              _L113:
 196  020F              #line 196 "F:\CZW_Word\项目\额温计\Code\SW_BH67F2752_DemoCode_Lib_20180919\SW_BH67F2752_DemoCode_Lib_20180919\USER\Work.c"
 196  020F  1F00     R  	clr _SDK_SYS[3]
 196  0210  0F02        	mov a,2
 196  0211  0080     R  	mov _SDK_SYS[2],a
 196  0212  2800     R  	jmp _L86
 196  0213              _L111:
 201  0213              #line 201 "F:\CZW_Word\项目\额温计\Code\SW_BH67F2752_DemoCode_Lib_20180919\SW_BH67F2752_DemoCode_Lib_20180919\USER\Work.c"
 201  0213  2000     E  	call _fun_LCD_Display____
 201  0214              _L86:
 206  0214              #line 206 "F:\CZW_Word\项目\额温计\Code\SW_BH67F2752_DemoCode_Lib_20180919\SW_BH67F2752_DemoCode_Lib_20180919\USER\Work.c"
 206  0214  2000     R  	call _fun_get_VTP
 206  0215  0080     E  	mov ra,a
 206  0216  1E00     E  	snz ra
 206  0217  2800     R  	jmp _L114
 208  0218              #line 208 "F:\CZW_Word\项目\额温计\Code\SW_BH67F2752_DemoCode_Lib_20180919\SW_BH67F2752_DemoCode_Lib_20180919\USER\Work.c"
 208  0218  0700     R  	mov a,_SDK_CAL[14]
 208  0219  0080     E  	mov _fun_Tsen_Calculate_2[0],a
 208  021A  0700     R  	mov a,_SDK_CAL[15]
 208  021B  0080     E  	mov _fun_Tsen_Calculate_2[1],a
 208  021C  2000     E  	call _fun_Tsen_Calculate
 208  021D  0700     E  	mov a,ra
 208  021E  0080     R  	mov _SDK_CAL[8],a
 208  021F  0700     E  	mov a,rb
 208  0220  0080     R  	mov _SDK_CAL[9],a
 209  0221              #line 209 "F:\CZW_Word\项目\额温计\Code\SW_BH67F2752_DemoCode_Lib_20180919\SW_BH67F2752_DemoCode_Lib_20180919\USER\Work.c"
 209  0221  0700     R  	mov a,_SDK_CAL[4]
 209  0222  0080     E  	mov _fun_Tobj_Calculate_2[2],a
 209  0223  0700     R  	mov a,_SDK_CAL[5]
 209  0224  0080     E  	mov _fun_Tobj_Calculate_2[3],a
 209  0225  0700     E  	mov a,ra
 209  0226  0080     E  	mov _fun_Tobj_Calculate_2[0],a
 209  0227  0700     E  	mov a,rb
 209  0228  0080     E  	mov _fun_Tobj_Calculate_2[1],a
 209  0229  2000     E  	call _fun_Tobj_Calculate
 209  022A  0700     E  	mov a,ra
 209  022B  0080     R  	mov _SDK_CAL[10],a
 209  022C  0700     E  	mov a,rb
 209  022D  0080     R  	mov _SDK_CAL[11],a
 211  022E              #line 211 "F:\CZW_Word\项目\额温计\Code\SW_BH67F2752_DemoCode_Lib_20180919\SW_BH67F2752_DemoCode_Lib_20180919\USER\Work.c"
 211  022E  0F01        	mov a,1
 211  022F  2000     E  	call _fun_BeepSet
 214  0230              #line 214 "F:\CZW_Word\项目\额温计\Code\SW_BH67F2752_DemoCode_Lib_20180919\SW_BH67F2752_DemoCode_Lib_20180919\USER\Work.c"
 214  0230  0700     R  	mov a,_SDK_SYS[0]
 214  0231  0080     R  	mov _fun_WorkModeScan_2[0],a
 214  0232  1700     R  	sdza _fun_WorkModeScan_2[0]
 214  0233  2800     R  	jmp _L115
 216  0234              #line 216 "F:\CZW_Word\项目\额温计\Code\SW_BH67F2752_DemoCode_Lib_20180919\SW_BH67F2752_DemoCode_Lib_20180919\USER\Work.c"
 216  0234  0700     R  	mov a,_SDK_CAL[10]
 216  0235  0080     E  	mov _LCD_DISPLAY_NUM_2[0],a
 216  0236  0700     R  	mov a,_SDK_CAL[11]
 216  0237  0080     E  	mov _LCD_DISPLAY_NUM_2[1],a
 216  0238  0F00        	mov a,0
 216  0239  2800     R  	jmp _L138
文件：Work.c       编译器版本 HGASM 0202 页次22

 216  023A              _L115:
 218  023A              #line 218 "F:\CZW_Word\项目\额温计\Code\SW_BH67F2752_DemoCode_Lib_20180919\SW_BH67F2752_DemoCode_Lib_20180919\USER\Work.c"
 218  023A  0700     R  	mov a,_fun_WorkModeScan_2[0]
 218  023B  0A02        	sub a,2
 218  023C  390A        	snz z
 218  023D  2800     R  	jmp _L116
 220  023E              #line 220 "F:\CZW_Word\项目\额温计\Code\SW_BH67F2752_DemoCode_Lib_20180919\SW_BH67F2752_DemoCode_Lib_20180919\USER\Work.c"
 220  023E  0700     R  	mov a,_SDK_CAL[11]
 220  023F  0080     E  	mov _builtin_holtek_mant1[1],a
 220  0240  0700     R  	mov a,_SDK_CAL[10]
 220  0241  0080     E  	mov _builtin_holtek_mant1[0],a
 220  0242  3400     E  	clr _builtin_holtek_signs.0
 220  0243  2000     E  	call _builtin_holtek_uitod
 220  0244  0700     E  	mov a,_builtin_holtek_mant12p[0]
 220  0245  0080     E  	mov rg,a
 220  0246  0700     E  	mov a,_builtin_holtek_mant1[2]
 220  0247  0080     E  	mov rf,a
 220  0248  0700     E  	mov a,_builtin_holtek_mant1[1]
 220  0249  0080     E  	mov re,a
 220  024A  0700     E  	mov a,_builtin_holtek_mant1[0]
 220  024B  0080     E  	mov rd,a
 220  024C  0700     E  	mov a,rg
 220  024D  0080     E  	mov _builtin_holtek_mant12p[0],a
 220  024E  0700     E  	mov a,rf
 220  024F  0080     E  	mov _builtin_holtek_mant1[2],a
 220  0250  0700     E  	mov a,re
 220  0251  0080     E  	mov _builtin_holtek_mant1[1],a
 220  0252  0700     E  	mov a,rd
 220  0253  0080     E  	mov _builtin_holtek_mant1[0],a
 220  0254  0F3F        	mov a,63
 220  0255  0080     E  	mov _builtin_holtek_mant12p[1],a
 220  0256  0FE6        	mov a,230
 220  0257  0080     E  	mov _builtin_holtek_mant2[2],a
 220  0258  0F66        	mov a,102
 220  0259  0080     E  	mov _builtin_holtek_mant2[1],a
 220  025A  0F66        	mov a,102
 220  025B  0080     E  	mov _builtin_holtek_mant2[0],a
 220  025C  2000     E  	call _builtin_holtek_dtmul
 220  025D  0700     E  	mov a,_builtin_holtek_mant12p[0]
 220  025E  0080     E  	mov rg,a
 220  025F  0700     E  	mov a,_builtin_holtek_mant1[2]
 220  0260  0080     E  	mov rf,a
 220  0261  0700     E  	mov a,_builtin_holtek_mant1[1]
 220  0262  0080     E  	mov re,a
 220  0263  0700     E  	mov a,_builtin_holtek_mant1[0]
 220  0264  0080     E  	mov rd,a
 220  0265  0700     E  	mov a,rg
 220  0266  0080     E  	mov _builtin_holtek_mant12p[0],a
 220  0267  0700     E  	mov a,rf
 220  0268  0080     E  	mov _builtin_holtek_mant1[2],a
 220  0269  0700     E  	mov a,re
 220  026A  0080     E  	mov _builtin_holtek_mant1[1],a
 220  026B  0700     E  	mov a,rd
 220  026C  0080     E  	mov _builtin_holtek_mant1[0],a
 220  026D  0F42        	mov a,66
 220  026E  0080     E  	mov _builtin_holtek_mant12p[1],a
 220  026F  0F00        	mov a,0
 220  0270  0080     E  	mov _builtin_holtek_mant2[2],a
 220  0271  0F00        	mov a,0
 220  0272  0080     E  	mov _builtin_holtek_mant2[1],a
文件：Work.c       编译器版本 HGASM 0202 页次23

 220  0273  0F00        	mov a,0
 220  0274  0080     E  	mov _builtin_holtek_mant2[0],a
 220  0275  2000     E  	call _builtin_holtek_dtadd
 220  0276  0700     E  	mov a,_builtin_holtek_mant12p[0]
 220  0277  0080     E  	mov rg,a
 220  0278  0700     E  	mov a,_builtin_holtek_mant1[2]
 220  0279  0080     E  	mov rf,a
 220  027A  0700     E  	mov a,_builtin_holtek_mant1[1]
 220  027B  0080     E  	mov re,a
 220  027C  0700     E  	mov a,_builtin_holtek_mant1[0]
 220  027D  0080     E  	mov rd,a
 220  027E  0700     E  	mov a,rg
 220  027F  0080     E  	mov _builtin_holtek_mant12p[0],a
 220  0280  0700     E  	mov a,rf
 220  0281  0080     E  	mov _builtin_holtek_mant1[2],a
 220  0282  0700     E  	mov a,re
 220  0283  0080     E  	mov _builtin_holtek_mant1[1],a
 220  0284  0700     E  	mov a,rd
 220  0285  0080     E  	mov _builtin_holtek_mant1[0],a
 220  0286  2000     E  	call _builtin_holtek_dtol
 220  0287  0700     E  	mov a,_builtin_holtek_mant12p[0]
 220  0288  0080     E  	mov rg,a
 220  0289  0700     E  	mov a,_builtin_holtek_mant1[2]
 220  028A  0080     E  	mov rf,a
 220  028B  0700     E  	mov a,_builtin_holtek_mant1[1]
 220  028C  0080     E  	mov re,a
 220  028D  0700     E  	mov a,_builtin_holtek_mant1[0]
 220  028E  0080     E  	mov rd,a
 220  028F  0700     E  	mov a,rd
 220  0290  0080     E  	mov _LCD_DISPLAY_NUM_2[0],a
 220  0291  0700     E  	mov a,re
 220  0292  0080     E  	mov _LCD_DISPLAY_NUM_2[1],a
 220  0293  0F01        	mov a,1
 220  0294              _L138:
 220  0294  2000     E  	call _LCD_DISPLAY_NUM
 220  0295              _L116:
 222  0295              #line 222 "F:\CZW_Word\项目\额温计\Code\SW_BH67F2752_DemoCode_Lib_20180919\SW_BH67F2752_DemoCode_Lib_20180919\USER\Work.c"
 222  0295  1F00     R  	clr _SDK_SYS[3]
 222  0296  0F02        	mov a,2
 222  0297  0080     R  	mov _SDK_SYS[2],a
 222  0298  2800     R  	jmp _L84
 222  0299              _L114:
 227  0299              #line 227 "F:\CZW_Word\项目\额温计\Code\SW_BH67F2752_DemoCode_Lib_20180919\SW_BH67F2752_DemoCode_Lib_20180919\USER\Work.c"
 227  0299  2000     E  	call _fun_LCD_Display____
 227  029A              _L84:
 232  029A              #line 232 "F:\CZW_Word\项目\额温计\Code\SW_BH67F2752_DemoCode_Lib_20180919\SW_BH67F2752_DemoCode_Lib_20180919\USER\Work.c"
 232  029A  2000     R  	call _fun_CORR_MODE
 233  029B              #line 233 "F:\CZW_Word\项目\额温计\Code\SW_BH67F2752_DemoCode_Lib_20180919\SW_BH67F2752_DemoCode_Lib_20180919\USER\Work.c"
 233  029B  2800     R  	jmp _L78
 233  029C              _L135:
 236  029C              #line 236 "F:\CZW_Word\项目\额温计\Code\SW_BH67F2752_DemoCode_Lib_20180919\SW_BH67F2752_DemoCode_Lib_20180919\USER\Work.c"
 236  029C  1F00     R  	clr _SDK_SYS[3]
 236  029D  0F02        	mov a,2
 236  029E  0080     R  	mov _SDK_SYS[2],a
 236  029F              _L78:
 236  029F  0003        	ret
 236  02A0              _fun_WorkModeScan endp
 236  02A0              #line 236 "F:\CZW_Word\项目\额温计\Code\SW_BH67F2752_DemoCode_Lib_20180919\SW_BH67F2752_DemoCode_Lib_20180919\USER\Work.c"
 236  02A0              #pragma debug scope 1 1
 242  02A0              #line 242 "F:\CZW_Word\项目\额温计\Code\SW_BH67F2752_DemoCode_Lib_20180919\SW_BH67F2752_DemoCode_Lib_20180919\USER\Work.c"
文件：Work.c       编译器版本 HGASM 0202 页次24

 242  02A0              public _gu8v_CorrCount
 242  0000              @HCCINIT0_gu8v_CorrCount .section 'data'
 242  0000              _gu8v_CorrCount	db 0
 242  0001              #pragma debug variable 8 1 _gu8v_CorrCount "gu8v_CorrCount"
 242  0001              
 242  0000              @HCCINIT .section 'data'
 241  0000              #line 241 "F:\CZW_Word\项目\额温计\Code\SW_BH67F2752_DemoCode_Lib_20180919\SW_BH67F2752_DemoCode_Lib_20180919\USER\Work.c"
 241  0000              public _gu8v_CorrMode
 241  0000              @HCCINIT0_gu8v_CorrMode .section 'data'
 241  0000              _gu8v_CorrMode	db 0
 241  0001              #pragma debug variable 8 1 _gu8v_CorrMode "gu8v_CorrMode"
 241  0001              
 241  0000              @HCCINIT .section 'data'
 240  0000              #line 240 "F:\CZW_Word\项目\额温计\Code\SW_BH67F2752_DemoCode_Lib_20180919\SW_BH67F2752_DemoCode_Lib_20180919\USER\Work.c"
 240  0000              public _gbv_Corr_Lock
 240  0000              @BITDATASEC .section 'data'
 240  0000  00          _gbv_Corr_Lock	dbit 0
 240  0001              #pragma debug variable 2 1 _gbv_Corr_Lock "gbv_Corr_Lock"
 240  0001              
 240  0000              @HCCINIT .section 'data'
  22  0000              #line 22 "F:\CZW_Word\项目\额温计\Code\SW_BH67F2752_DemoCode_Lib_20180919\SW_BH67F2752_DemoCode_Lib_20180919\USER\Work.c"
  22  0000              public _SDK_CAL
  22  0000              @HCCINIT0_SDK_CAL .section 'data'
  22  0000  0016[       _SDK_CAL	db 22 dup(0)
            00
            ]
  22  0016              #pragma debug struct_end
  22  0016              #pragma debug struct_end
  22  0016              #pragma debug struct_end
  22  0016              #pragma debug struct_end
  22  0016              #pragma debug union_end
  22  0016              #pragma debug union_end
  22  0016              #pragma debug struct_end
  22  0016              #pragma debug struct_end
  22  0016              #pragma debug variable 45 1 _SDK_CAL "SDK_CAL"
  22  0016              
  22  0000              @HCCINIT .section 'data'
  21  0000              #line 21 "F:\CZW_Word\项目\额温计\Code\SW_BH67F2752_DemoCode_Lib_20180919\SW_BH67F2752_DemoCode_Lib_20180919\USER\Work.c"
  21  0000              public _SDK_SYS
  21  0000              @HCCINIT0_SDK_SYS .section 'data'
  21  0000  0006[       _SDK_SYS	db 6 dup(0)
            00
            ]
  21  0006              #pragma debug struct_end
  21  0006              #pragma debug struct_end
  21  0006              #pragma debug union_end
  21  0006              #pragma debug union_end
  21  0006              #pragma debug struct_end
  21  0006              #pragma debug struct_end
  21  0006              #pragma debug variable 48 1 _SDK_SYS "SDK_SYS"
  21  0006              
  21  0000              @HCCINIT .section 'data'
  21  0000              #pragma debug struct_end
  21  0000              #pragma debug struct_end
  21  0000              #pragma debug union_end
  21  0000              #pragma debug union_end
  21  0000              #pragma debug variable 50 1 ___dsopc "__dsopc" 1
  21  0000              
  21  0000              ; output external variables
  21  0000              extern _gu16v_Correction_K1:byte
文件：Work.c       编译器版本 HGASM 0202 页次25

  21  0000              extern _gu16v_Correction_K2:byte
  21  0000              extern _SDK_KEY:byte
  21  0000              extern _SDK_TM:byte
  21  0000              extern _SDK_ADC:byte
  21  0000              extern _fun_TEMP1_INIT:near
  21  0000              extern _fun_ADC_Disable:near
  21  0000              extern _fun_TEMP2_INIT:near
  21  0000              extern _fun_VTP_INIT:near
  21  0000              extern _fun_BAT_INIT:near
  21  0000              extern _fun_Rntc_Calculate_2:byte
  21  0000              extern _fun_Rntc_Calculate:near
  21  0000              extern _fun_Tsen_Calculate_2:byte
  21  0000              extern _fun_Tsen_Calculate:near
  21  0000              extern _LCD_DISPLAY_NUM_2:byte
  21  0000              extern _LCD_DISPLAY_NUM:near
  21  0000              extern _fun_LCD_FULL:near
  21  0000              extern _fun_LCD_Display_Cor:near
  21  0000              extern _fun_Corr_Calculate_2:byte
  21  0000              extern _fun_Corr_Calculate:near
  21  0000              extern _fun_EEprom_Write_2:byte
  21  0000              extern _fun_EEprom_Write:near
  21  0000              extern _fun_LCD_Display_Success:near
  21  0000              extern _fun_LCD_Display_Fail:near
  21  0000              extern _fun_LCD_Display_Mode:near
  21  0000              extern _fun_LCD_Display_CF:near
  21  0000              extern _builtin_holtek_mant1:byte
  21  0000              extern _builtin_holtek_mant12p:byte
  21  0000              extern _builtin_holtek_signs:byte
  21  0000              extern _builtin_holtek_uitod:near
  21  0000              extern _builtin_holtek_mant2:byte
  21  0000              extern _builtin_holtek_dtmul:near
  21  0000              extern _builtin_holtek_dtadd:near
  21  0000              extern _builtin_holtek_dtol:near
  21  0000              extern _fun_Tobj_Calculate_2:byte
  21  0000              extern _fun_Tobj_Calculate:near
  21  0000              extern _fun_ObjTemp_DataHandle_2:byte
  21  0000              extern _fun_ObjTemp_DataHandle:near
  21  0000              extern _fun_Temp_SurfaceToBody_2:byte
  21  0000              extern _fun_Temp_SurfaceToBody:near
  21  0000              extern _fun_BeepSet:near
  21  0000              extern _fun_LCD_Display____:near
  21  0000              
  21  0000              ; 
  21  0000              ; Generated by holtek-gcc v3.19, Wed Feb 26 21:03:01 2020
  21  0000              ; Rebuild 718
  21  0000              ; end of file


        0 Errors, 0